ARM GAS  /var/folders/g9/bbpj86ld7fx45vd1b3pqxmp00000gn/T//ccyrm7VH.s 			page 1


   1              		.syntax unified
   2              		.cpu cortex-m3
   3              		.fpu softvfp
   4              		.eabi_attribute 20, 1
   5              		.eabi_attribute 21, 1
   6              		.eabi_attribute 23, 3
   7              		.eabi_attribute 24, 1
   8              		.eabi_attribute 25, 1
   9              		.eabi_attribute 26, 1
  10              		.eabi_attribute 30, 1
  11              		.eabi_attribute 34, 1
  12              		.eabi_attribute 18, 4
  13              		.thumb
  14              		.syntax unified
  15              		.file	"BMA280.c"
  16              		.text
  17              	.Ltext0:
  18              		.cfi_sections	.debug_frame
  19              		.section	.text.Read_1_Byte,"ax",%progbits
  20              		.align	2
  21              		.thumb
  22              		.thumb_func
  24              	Read_1_Byte:
  25              	.LFB28:
  26              		.file 1 "Src/Sensor/BMA280.c"
   1:Src/Sensor/BMA280.c **** /*
   2:Src/Sensor/BMA280.c ****  * (C) COPYRIGHT 2014 CRZ
   3:Src/Sensor/BMA280.c ****  */
   4:Src/Sensor/BMA280.c **** 
   5:Src/Sensor/BMA280.c **** /* Includes */
   6:Src/Sensor/BMA280.c **** 
   7:Src/Sensor/BMA280.c **** //#include "hw_config.h"
   8:Src/Sensor/BMA280.c **** #include "BMA280.h"
   9:Src/Sensor/BMA280.c **** 
  10:Src/Sensor/BMA280.c **** #define BMA280_I2C_ADDR (0x18<<1)//x30
  11:Src/Sensor/BMA280.c **** //#define BMA280_SLAVE_ADDRESS (0x18<<1)//x30
  12:Src/Sensor/BMA280.c **** 
  13:Src/Sensor/BMA280.c **** #define BMA280_RA_CHIP_ID           0x00
  14:Src/Sensor/BMA280.c **** #define BMA280_RA_VERSION           0x01
  15:Src/Sensor/BMA280.c **** #define BMA280_RA_X_AXIS_LSB        0x02
  16:Src/Sensor/BMA280.c **** #define BMA280_RA_X_AXIS_MSB        0x03
  17:Src/Sensor/BMA280.c **** #define BMA280_RA_Y_AXIS_LSB        0x04
  18:Src/Sensor/BMA280.c **** #define BMA280_RA_Y_AXIS_MSB        0x05
  19:Src/Sensor/BMA280.c **** #define BMA280_RA_Z_AXIS_LSB        0x06
  20:Src/Sensor/BMA280.c **** #define BMA280_RA_Z_AXIS_MSB        0x07
  21:Src/Sensor/BMA280.c **** #define BMA280_RA_TEMP_RD           0x08
  22:Src/Sensor/BMA280.c **** #define BMA280_RA_SMB150_STATUS     0x09
  23:Src/Sensor/BMA280.c **** #define BMA280_RA_SMB150_CTRL       0x0a
  24:Src/Sensor/BMA280.c **** #define BMA280_RA_SMB150_CONF1      0x0b
  25:Src/Sensor/BMA280.c **** #define BMA280_RA_LG_THRESHOLD      0x0c
  26:Src/Sensor/BMA280.c **** #define BMA280_RA_LG_DURATION       0x0d
  27:Src/Sensor/BMA280.c **** #define BMA280_RA_HG_THRESHOLD      0x0e
  28:Src/Sensor/BMA280.c **** //#define BMA280_RA_HG_DURATION       0x0f
  29:Src/Sensor/BMA280.c **** #define BMA280_RA_BANDWIDTH       0x10
  30:Src/Sensor/BMA280.c **** #define BMA280_RA_HYSTERESIS        0x11
  31:Src/Sensor/BMA280.c **** #define BMA280_RA_CUSTOMER1         0x12
  32:Src/Sensor/BMA280.c **** #define BMA280_RA_CUSTOMER2         0x13
ARM GAS  /var/folders/g9/bbpj86ld7fx45vd1b3pqxmp00000gn/T//ccyrm7VH.s 			page 2


  33:Src/Sensor/BMA280.c **** #define BMA280_RA_RANGE_BWIDTH      0x0f
  34:Src/Sensor/BMA280.c **** #define BMA280_RA_SMB150_CONF2      0x15
  35:Src/Sensor/BMA280.c **** #define BMA280_RA_OFFS_GAIN_X       0x16
  36:Src/Sensor/BMA280.c **** #define BMA280_RA_OFFS_GAIN_Y       0x17
  37:Src/Sensor/BMA280.c **** #define BMA280_RA_OFFS_GAIN_Z       0x18
  38:Src/Sensor/BMA280.c **** #define BMA280_RA_OFFS_GAIN_T       0x19
  39:Src/Sensor/BMA280.c **** #define BMA280_RA_OFFSET_X          0x1a
  40:Src/Sensor/BMA280.c **** #define BMA280_RA_OFFSET_Y          0x1b
  41:Src/Sensor/BMA280.c **** #define BMA280_RA_OFFSET_Z          0x1c
  42:Src/Sensor/BMA280.c **** #define BMA280_RA_OFFSET_T          0x1d
  43:Src/Sensor/BMA280.c **** 
  44:Src/Sensor/BMA280.c **** #define BMA280_CHIP_ID_BIT             2
  45:Src/Sensor/BMA280.c **** #define BMA280_CHIP_ID_LENGTH          3
  46:Src/Sensor/BMA280.c **** 
  47:Src/Sensor/BMA280.c **** #define BMA280_X_AXIS_LSB_BIT          7
  48:Src/Sensor/BMA280.c **** #define BMA280_X_AXIS_LSB_LENGTH       2
  49:Src/Sensor/BMA280.c **** #define BMA280_X_NEW_DATA_BIT          0
  50:Src/Sensor/BMA280.c **** 
  51:Src/Sensor/BMA280.c **** #define BMA280_Y_AXIS_LSB_BIT          7
  52:Src/Sensor/BMA280.c **** #define BMA280_Y_AXIS_LSB_LENGTH       2
  53:Src/Sensor/BMA280.c **** #define BMA280_Y_NEW_DATA_BIT          0
  54:Src/Sensor/BMA280.c **** 
  55:Src/Sensor/BMA280.c **** #define BMA280_Z_AXIS_LSB_BIT          7
  56:Src/Sensor/BMA280.c **** #define BMA280_Z_AXIS_LSB_LENGTH       2
  57:Src/Sensor/BMA280.c **** #define BMA280_Z_NEW_DATA_BIT          0
  58:Src/Sensor/BMA280.c **** 
  59:Src/Sensor/BMA280.c **** #define BMA280_STATUS_HG_BIT           0
  60:Src/Sensor/BMA280.c **** #define BMA280_STATUS_LG_BIT           1
  61:Src/Sensor/BMA280.c **** #define BMA280_HG_LATCHED_BIT          2
  62:Src/Sensor/BMA280.c **** #define BMA280_LG_LATCHED_BIT          3
  63:Src/Sensor/BMA280.c **** #define BMA280_ALERT_PHASE_BIT         4
  64:Src/Sensor/BMA280.c **** #define BMA280_ST_RESULT_BIT           7
  65:Src/Sensor/BMA280.c **** 
  66:Src/Sensor/BMA280.c **** #define BMA280_SLEEP_BIT               0
  67:Src/Sensor/BMA280.c **** #define BMA280_SOFT_RESET_BIT          1
  68:Src/Sensor/BMA280.c **** #define BMA280_ST0_BIT                 2
  69:Src/Sensor/BMA280.c **** #define BMA280_ST1_BIT                 3
  70:Src/Sensor/BMA280.c **** #define BMA280_EEW_BIT                 4
  71:Src/Sensor/BMA280.c **** #define BMA280_UPDATE_IMAGE_BIT        5
  72:Src/Sensor/BMA280.c **** #define BMA280_RESET_INT_BIT           6
  73:Src/Sensor/BMA280.c **** 
  74:Src/Sensor/BMA280.c **** #define BMA280_ENABLE_LG_BIT           0
  75:Src/Sensor/BMA280.c **** #define BMA280_ENABLE_HG_BIT           1
  76:Src/Sensor/BMA280.c **** #define BMA280_COUNTER_LG_BIT          3
  77:Src/Sensor/BMA280.c **** #define BMA280_COUNTER_LG_LENGTH       2
  78:Src/Sensor/BMA280.c **** #define BMA280_COUNTER_HG_BIT          5
  79:Src/Sensor/BMA280.c **** #define BMA280_COUNTER_HG_LENGTH       2
  80:Src/Sensor/BMA280.c **** #define BMA280_ANY_MOTION_BIT          6
  81:Src/Sensor/BMA280.c **** #define BMA280_ALERT_BIT               7
  82:Src/Sensor/BMA280.c **** 
  83:Src/Sensor/BMA280.c **** #define BMA280_LG_HYST_BIT             2
  84:Src/Sensor/BMA280.c **** #define BMA280_LG_HYST_LENGTH          3
  85:Src/Sensor/BMA280.c **** #define BMA280_HG_HYST_BIT             5
  86:Src/Sensor/BMA280.c **** #define BMA280_HG_HYST_LENGTH          3
  87:Src/Sensor/BMA280.c **** #define BMA280_ANY_MOTION_DUR_BIT      7
  88:Src/Sensor/BMA280.c **** #define BMA280_ANY_MOTION_DUR_LENGTH   2
  89:Src/Sensor/BMA280.c **** 
ARM GAS  /var/folders/g9/bbpj86ld7fx45vd1b3pqxmp00000gn/T//ccyrm7VH.s 			page 3


  90:Src/Sensor/BMA280.c **** #define BMA280_BANDWIDTH_BIT           2
  91:Src/Sensor/BMA280.c **** #define BMA280_BANDWIDTH_LENGTH        3
  92:Src/Sensor/BMA280.c **** #define BMA280_RANGE_BIT               4
  93:Src/Sensor/BMA280.c **** #define BMA280_RANGE_LENGTH            2
  94:Src/Sensor/BMA280.c **** 
  95:Src/Sensor/BMA280.c **** #define BMA280_WAKE_UP_BIT             0
  96:Src/Sensor/BMA280.c **** #define BMA280_WAKE_UP_PAUSE_BIT       2
  97:Src/Sensor/BMA280.c **** #define BMA280_WAKE_UP_PAUSE_LENGTH    2
  98:Src/Sensor/BMA280.c **** #define BMA280_SHADOW_DIS_BIT          3
  99:Src/Sensor/BMA280.c **** #define BMA280_LATCH_INT_BIT           4
 100:Src/Sensor/BMA280.c **** #define BMA280_NEW_DATA_INT_BIT        5
 101:Src/Sensor/BMA280.c **** #define BMA280_ENABLE_ADV_INT_BIT      6
 102:Src/Sensor/BMA280.c **** #define BMA280_SPI4_BIT                7
 103:Src/Sensor/BMA280.c **** 
 104:Src/Sensor/BMA280.c **** /* range and bandwidth */
 105:Src/Sensor/BMA280.c **** #define BMA280_RANGE_2G                0x3
 106:Src/Sensor/BMA280.c **** #define BMA280_RANGE_4G                0x5
 107:Src/Sensor/BMA280.c **** #define BMA280_RANGE_8G                0x8
 108:Src/Sensor/BMA280.c **** 
 109:Src/Sensor/BMA280.c **** #define BMA280_BW_7HZ                 0
 110:Src/Sensor/BMA280.c **** #define BMA280_BW_7_81HZ                 0x8
 111:Src/Sensor/BMA280.c **** #define BMA280_BW_15_13HZ                0x9
 112:Src/Sensor/BMA280.c **** #define BMA280_BW_125HZ                12
 113:Src/Sensor/BMA280.c **** #define BMA280_BW_250HZ                13
 114:Src/Sensor/BMA280.c **** #define BMA280_BW_500HZ                14
 115:Src/Sensor/BMA280.c **** #define BMA280_BW_MAX              0xF
 116:Src/Sensor/BMA280.c **** 
 117:Src/Sensor/BMA280.c **** static uint8_t Read_1_Byte(uint8_t address)
 118:Src/Sensor/BMA280.c **** {
  27              		.loc 1 118 0
  28              		.cfi_startproc
  29              		@ args = 0, pretend = 0, frame = 8
  30              		@ frame_needed = 0, uses_anonymous_args = 0
  31              	.LVL0:
  32 0000 30B5     		push	{r4, r5, lr}
  33              	.LCFI0:
  34              		.cfi_def_cfa_offset 12
  35              		.cfi_offset 4, -12
  36              		.cfi_offset 5, -8
  37              		.cfi_offset 14, -4
  38 0002 85B0     		sub	sp, sp, #20
  39              	.LCFI1:
  40              		.cfi_def_cfa_offset 32
 119:Src/Sensor/BMA280.c ****     uint8_t Buffer_Tx;
 120:Src/Sensor/BMA280.c ****     uint8_t Buffer_Rx;
 121:Src/Sensor/BMA280.c **** 
 122:Src/Sensor/BMA280.c ****     Buffer_Tx = address;
  41              		.loc 1 122 0
  42 0004 04A9     		add	r1, sp, #16
  43 0006 01F8010D 		strb	r0, [r1, #-1]!
 123:Src/Sensor/BMA280.c **** 
 124:Src/Sensor/BMA280.c ****     I2C_Master_BufferWrite(I2C1, &Buffer_Tx, 1, Polling, BMA280_I2C_ADDR);
  44              		.loc 1 124 0
  45 000a 0A4C     		ldr	r4, .L3
  46 000c 3025     		movs	r5, #48
  47 000e 0095     		str	r5, [sp]
  48 0010 0023     		movs	r3, #0
ARM GAS  /var/folders/g9/bbpj86ld7fx45vd1b3pqxmp00000gn/T//ccyrm7VH.s 			page 4


  49 0012 0122     		movs	r2, #1
  50 0014 2046     		mov	r0, r4
  51              	.LVL1:
  52 0016 FFF7FEFF 		bl	I2C_Master_BufferWrite
  53              	.LVL2:
 125:Src/Sensor/BMA280.c ****     I2C_Master_BufferRead(I2C1, &Buffer_Rx, 1, Polling, BMA280_I2C_ADDR);
  54              		.loc 1 125 0
  55 001a 0095     		str	r5, [sp]
  56 001c 0023     		movs	r3, #0
  57 001e 0122     		movs	r2, #1
  58 0020 0DF10E01 		add	r1, sp, #14
  59 0024 2046     		mov	r0, r4
  60 0026 FFF7FEFF 		bl	I2C_Master_BufferRead
  61              	.LVL3:
 126:Src/Sensor/BMA280.c **** 
 127:Src/Sensor/BMA280.c ****     return Buffer_Rx;
 128:Src/Sensor/BMA280.c **** }
  62              		.loc 1 128 0
  63 002a 9DF80E00 		ldrb	r0, [sp, #14]	@ zero_extendqisi2
  64 002e 05B0     		add	sp, sp, #20
  65              	.LCFI2:
  66              		.cfi_def_cfa_offset 12
  67              		@ sp needed
  68 0030 30BD     		pop	{r4, r5, pc}
  69              	.L4:
  70 0032 00BF     		.align	2
  71              	.L3:
  72 0034 00540040 		.word	1073763328
  73              		.cfi_endproc
  74              	.LFE28:
  76              		.section	.text.Get_ChipID,"ax",%progbits
  77              		.align	2
  78              		.thumb
  79              		.thumb_func
  81              	Get_ChipID:
  82              	.LFB29:
 129:Src/Sensor/BMA280.c **** 
 130:Src/Sensor/BMA280.c **** static uint8_t Get_ChipID(void)
 131:Src/Sensor/BMA280.c **** {
  83              		.loc 1 131 0
  84              		.cfi_startproc
  85              		@ args = 0, pretend = 0, frame = 0
  86              		@ frame_needed = 0, uses_anonymous_args = 0
  87 0000 08B5     		push	{r3, lr}
  88              	.LCFI3:
  89              		.cfi_def_cfa_offset 8
  90              		.cfi_offset 3, -8
  91              		.cfi_offset 14, -4
 132:Src/Sensor/BMA280.c ****     return Read_1_Byte(BMA280_RA_CHIP_ID);
  92              		.loc 1 132 0
  93 0002 0020     		movs	r0, #0
  94 0004 FFF7FEFF 		bl	Read_1_Byte
  95              	.LVL4:
 133:Src/Sensor/BMA280.c **** }
  96              		.loc 1 133 0
  97 0008 08BD     		pop	{r3, pc}
  98              		.cfi_endproc
ARM GAS  /var/folders/g9/bbpj86ld7fx45vd1b3pqxmp00000gn/T//ccyrm7VH.s 			page 5


  99              	.LFE29:
 101 000a 00BF     		.section	.text.Read_3_Axis_BMA280_Data,"ax",%progbits
 102              		.align	2
 103              		.global	Read_3_Axis_BMA280_Data
 104              		.thumb
 105              		.thumb_func
 107              	Read_3_Axis_BMA280_Data:
 108              	.LFB30:
 134:Src/Sensor/BMA280.c **** 
 135:Src/Sensor/BMA280.c **** /*
 136:Src/Sensor/BMA280.c ****  * Description : none.
 137:Src/Sensor/BMA280.c ****  * Argument(s) : none.
 138:Src/Sensor/BMA280.c ****  * Return(s)   : none.
 139:Src/Sensor/BMA280.c ****  * Note(s)     : none.
 140:Src/Sensor/BMA280.c ****  */
 141:Src/Sensor/BMA280.c **** void Read_3_Axis_BMA280_Data(int16_t * xData_p, int16_t * yData_p, int16_t * zData_p)
 142:Src/Sensor/BMA280.c **** {
 109              		.loc 1 142 0
 110              		.cfi_startproc
 111              		@ args = 0, pretend = 0, frame = 8
 112              		@ frame_needed = 0, uses_anonymous_args = 0
 113              	.LVL5:
 114 0000 2DE9F041 		push	{r4, r5, r6, r7, r8, lr}
 115              	.LCFI4:
 116              		.cfi_def_cfa_offset 24
 117              		.cfi_offset 4, -24
 118              		.cfi_offset 5, -20
 119              		.cfi_offset 6, -16
 120              		.cfi_offset 7, -12
 121              		.cfi_offset 8, -8
 122              		.cfi_offset 14, -4
 123 0004 84B0     		sub	sp, sp, #16
 124              	.LCFI5:
 125              		.cfi_def_cfa_offset 40
 126 0006 0746     		mov	r7, r0
 127 0008 0D46     		mov	r5, r1
 128 000a 1446     		mov	r4, r2
 143:Src/Sensor/BMA280.c ****     uint8_t Buffer_Tx;
 144:Src/Sensor/BMA280.c ****     uint8_t Buffer_Rx[6];
 145:Src/Sensor/BMA280.c **** 
 146:Src/Sensor/BMA280.c ****     Buffer_Tx = BMA280_RA_X_AXIS_LSB;
 129              		.loc 1 146 0
 130 000c 04A9     		add	r1, sp, #16
 131              	.LVL6:
 132 000e 0223     		movs	r3, #2
 133 0010 01F8013D 		strb	r3, [r1, #-1]!
 147:Src/Sensor/BMA280.c **** 
 148:Src/Sensor/BMA280.c ****     I2C_Master_BufferWrite(I2C1, &Buffer_Tx, 1, Polling, BMA280_I2C_ADDR);
 134              		.loc 1 148 0
 135 0014 164E     		ldr	r6, .L9
 136 0016 4FF03008 		mov	r8, #48
 137 001a CDF80080 		str	r8, [sp]
 138 001e 0023     		movs	r3, #0
 139 0020 0122     		movs	r2, #1
 140              	.LVL7:
 141 0022 3046     		mov	r0, r6
 142              	.LVL8:
ARM GAS  /var/folders/g9/bbpj86ld7fx45vd1b3pqxmp00000gn/T//ccyrm7VH.s 			page 6


 143 0024 FFF7FEFF 		bl	I2C_Master_BufferWrite
 144              	.LVL9:
 149:Src/Sensor/BMA280.c ****     I2C_Master_BufferRead(I2C1, Buffer_Rx, 6, Polling, BMA280_I2C_ADDR);
 145              		.loc 1 149 0
 146 0028 CDF80080 		str	r8, [sp]
 147 002c 0023     		movs	r3, #0
 148 002e 0622     		movs	r2, #6
 149 0030 02A9     		add	r1, sp, #8
 150 0032 3046     		mov	r0, r6
 151 0034 FFF7FEFF 		bl	I2C_Master_BufferRead
 152              	.LVL10:
 150:Src/Sensor/BMA280.c **** 
 151:Src/Sensor/BMA280.c ****     * xData_p = ((((int16_t)(int8_t)Buffer_Rx[1]) << 8) | Buffer_Rx[0]) >> 6;
 153              		.loc 1 151 0
 154 0038 9DF90920 		ldrsb	r2, [sp, #9]
 155 003c 9DF80830 		ldrb	r3, [sp, #8]	@ zero_extendqisi2
 156 0040 43EA0223 		orr	r3, r3, r2, lsl #8
 157 0044 9B11     		asrs	r3, r3, #6
 158 0046 3B80     		strh	r3, [r7]	@ movhi
 152:Src/Sensor/BMA280.c ****     * yData_p = ((((int16_t)(int8_t)Buffer_Rx[3]) << 8) | Buffer_Rx[2]) >> 6;
 159              		.loc 1 152 0
 160 0048 9DF90B20 		ldrsb	r2, [sp, #11]
 161 004c 9DF80A30 		ldrb	r3, [sp, #10]	@ zero_extendqisi2
 162 0050 43EA0223 		orr	r3, r3, r2, lsl #8
 163 0054 9B11     		asrs	r3, r3, #6
 164 0056 2B80     		strh	r3, [r5]	@ movhi
 153:Src/Sensor/BMA280.c ****     * zData_p = ((((int16_t)(int8_t)Buffer_Rx[5]) << 8) | Buffer_Rx[4]) >> 6;
 165              		.loc 1 153 0
 166 0058 9DF90D20 		ldrsb	r2, [sp, #13]
 167 005c 9DF80C30 		ldrb	r3, [sp, #12]	@ zero_extendqisi2
 168 0060 43EA0223 		orr	r3, r3, r2, lsl #8
 169 0064 9B11     		asrs	r3, r3, #6
 170 0066 2380     		strh	r3, [r4]	@ movhi
 154:Src/Sensor/BMA280.c **** }
 171              		.loc 1 154 0
 172 0068 04B0     		add	sp, sp, #16
 173              	.LCFI6:
 174              		.cfi_def_cfa_offset 24
 175              		@ sp needed
 176 006a BDE8F081 		pop	{r4, r5, r6, r7, r8, pc}
 177              	.LVL11:
 178              	.L10:
 179 006e 00BF     		.align	2
 180              	.L9:
 181 0070 00540040 		.word	1073763328
 182              		.cfi_endproc
 183              	.LFE30:
 185              		.section	.text.Test_3AXIS_BMA280,"ax",%progbits
 186              		.align	2
 187              		.global	Test_3AXIS_BMA280
 188              		.thumb
 189              		.thumb_func
 191              	Test_3AXIS_BMA280:
 192              	.LFB31:
 155:Src/Sensor/BMA280.c **** 
 156:Src/Sensor/BMA280.c **** void Test_3AXIS_BMA280(void)
 157:Src/Sensor/BMA280.c **** {
ARM GAS  /var/folders/g9/bbpj86ld7fx45vd1b3pqxmp00000gn/T//ccyrm7VH.s 			page 7


 193              		.loc 1 157 0
 194              		.cfi_startproc
 195              		@ args = 0, pretend = 0, frame = 16
 196              		@ frame_needed = 0, uses_anonymous_args = 0
 197 0000 30B5     		push	{r4, r5, lr}
 198              	.LCFI7:
 199              		.cfi_def_cfa_offset 12
 200              		.cfi_offset 4, -12
 201              		.cfi_offset 5, -8
 202              		.cfi_offset 14, -4
 203 0002 87B0     		sub	sp, sp, #28
 204              	.LCFI8:
 205              		.cfi_def_cfa_offset 40
 158:Src/Sensor/BMA280.c ****     uint8_t  Buffer_Tx[2];
 159:Src/Sensor/BMA280.c ****     int16_t  xData, yData, zData;
 160:Src/Sensor/BMA280.c **** 
 161:Src/Sensor/BMA280.c ****     printf("Get_ChipID: %X\r\n", Get_ChipID());
 206              		.loc 1 161 0
 207 0004 FFF7FEFF 		bl	Get_ChipID
 208              	.LVL12:
 209 0008 0146     		mov	r1, r0
 210 000a 1B48     		ldr	r0, .L14
 211 000c FFF7FEFF 		bl	printf
 212              	.LVL13:
 162:Src/Sensor/BMA280.c **** 
 163:Src/Sensor/BMA280.c ****     Buffer_Tx[0] = BMA280_RA_RANGE_BWIDTH;
 213              		.loc 1 163 0
 214 0010 0F23     		movs	r3, #15
 215 0012 8DF81430 		strb	r3, [sp, #20]
 164:Src/Sensor/BMA280.c ****     Buffer_Tx[1] = BMA280_RANGE_8G << 3;
 216              		.loc 1 164 0
 217 0016 4023     		movs	r3, #64
 218 0018 8DF81530 		strb	r3, [sp, #21]
 165:Src/Sensor/BMA280.c ****     I2C_Master_BufferWrite(I2C1, Buffer_Tx, 2, Polling, BMA280_I2C_ADDR);
 219              		.loc 1 165 0
 220 001c 174C     		ldr	r4, .L14+4
 221 001e 3025     		movs	r5, #48
 222 0020 0095     		str	r5, [sp]
 223 0022 0023     		movs	r3, #0
 224 0024 0222     		movs	r2, #2
 225 0026 05A9     		add	r1, sp, #20
 226 0028 2046     		mov	r0, r4
 227 002a FFF7FEFF 		bl	I2C_Master_BufferWrite
 228              	.LVL14:
 166:Src/Sensor/BMA280.c ****     Buffer_Tx[0] = BMA280_RA_BANDWIDTH;
 229              		.loc 1 166 0
 230 002e 1023     		movs	r3, #16
 231 0030 8DF81430 		strb	r3, [sp, #20]
 167:Src/Sensor/BMA280.c ****     Buffer_Tx[1] = BMA280_BW_500HZ;
 232              		.loc 1 167 0
 233 0034 0E23     		movs	r3, #14
 234 0036 8DF81530 		strb	r3, [sp, #21]
 168:Src/Sensor/BMA280.c ****     I2C_Master_BufferWrite(I2C1, Buffer_Tx, 2, Polling, BMA280_I2C_ADDR);	
 235              		.loc 1 168 0
 236 003a 0095     		str	r5, [sp]
 237 003c 0023     		movs	r3, #0
 238 003e 0222     		movs	r2, #2
ARM GAS  /var/folders/g9/bbpj86ld7fx45vd1b3pqxmp00000gn/T//ccyrm7VH.s 			page 8


 239 0040 05A9     		add	r1, sp, #20
 240 0042 2046     		mov	r0, r4
 241 0044 FFF7FEFF 		bl	I2C_Master_BufferWrite
 242              	.LVL15:
 169:Src/Sensor/BMA280.c ****     printf("Set Param BMA280_RANGE_8G, BMA280_BW_500HZ\r\n");
 243              		.loc 1 169 0
 244 0048 0D48     		ldr	r0, .L14+8
 245 004a FFF7FEFF 		bl	puts
 246              	.LVL16:
 247              	.L12:
 170:Src/Sensor/BMA280.c **** 
 171:Src/Sensor/BMA280.c ****     while(1)
 172:Src/Sensor/BMA280.c ****     {
 173:Src/Sensor/BMA280.c ****         Read_3_Axis_BMA280_Data(&xData, &yData, &zData);
 248              		.loc 1 173 0 discriminator 1
 249 004e 0DF10E02 		add	r2, sp, #14
 250 0052 04A9     		add	r1, sp, #16
 251 0054 0DF11200 		add	r0, sp, #18
 252 0058 FFF7FEFF 		bl	Read_3_Axis_BMA280_Data
 253              	.LVL17:
 174:Src/Sensor/BMA280.c ****         printf("x: %d, y: %d, z: %d\r\n", xData, yData, zData);
 254              		.loc 1 174 0 discriminator 1
 255 005c BDF90E30 		ldrsh	r3, [sp, #14]
 256 0060 BDF91020 		ldrsh	r2, [sp, #16]
 257 0064 BDF91210 		ldrsh	r1, [sp, #18]
 258 0068 0648     		ldr	r0, .L14+12
 259 006a FFF7FEFF 		bl	printf
 260              	.LVL18:
 175:Src/Sensor/BMA280.c ****         Delay(300);
 261              		.loc 1 175 0 discriminator 1
 262 006e 4FF49670 		mov	r0, #300
 263 0072 FFF7FEFF 		bl	Delay
 264              	.LVL19:
 265 0076 EAE7     		b	.L12
 266              	.L15:
 267              		.align	2
 268              	.L14:
 269 0078 00000000 		.word	.LC0
 270 007c 00540040 		.word	1073763328
 271 0080 14000000 		.word	.LC1
 272 0084 40000000 		.word	.LC2
 273              		.cfi_endproc
 274              	.LFE31:
 276              		.section	.rodata.str1.4,"aMS",%progbits,1
 277              		.align	2
 278              	.LC0:
 279 0000 4765745F 		.ascii	"Get_ChipID: %X\015\012\000"
 279      43686970 
 279      49443A20 
 279      25580D0A 
 279      00
 280 0011 000000   		.space	3
 281              	.LC1:
 282 0014 53657420 		.ascii	"Set Param BMA280_RANGE_8G, BMA280_BW_500HZ\015\000"
 282      50617261 
 282      6D20424D 
 282      41323830 
ARM GAS  /var/folders/g9/bbpj86ld7fx45vd1b3pqxmp00000gn/T//ccyrm7VH.s 			page 9


 282      5F52414E 
 283              	.LC2:
 284 0040 783A2025 		.ascii	"x: %d, y: %d, z: %d\015\012\000"
 284      642C2079 
 284      3A202564 
 284      2C207A3A 
 284      2025640D 
 285              		.text
 286              	.Letext0:
 287              		.file 2 "/usr/local/Cellar/gcc-arm-none-eabi/20160926/arm-none-eabi/include/machine/_default_types
 288              		.file 3 "/usr/local/Cellar/gcc-arm-none-eabi/20160926/arm-none-eabi/include/sys/_stdint.h"
 289              		.file 4 "CMSIS/Core/CM3/stm32f10x.h"
 290              		.file 5 "Inc/Sensor/I2CRoutines.h"
 291              		.file 6 "/usr/local/Cellar/gcc-arm-none-eabi/20160926/arm-none-eabi/include/stdio.h"
 292              		.file 7 "Inc/hw_config.h"
 293              		.file 8 "<built-in>"
ARM GAS  /var/folders/g9/bbpj86ld7fx45vd1b3pqxmp00000gn/T//ccyrm7VH.s 			page 10

