ARM GAS  /var/folders/g9/bbpj86ld7fx45vd1b3pqxmp00000gn/T//ccGuWmWx.s 			page 1


   1              		.syntax unified
   2              		.cpu cortex-m3
   3              		.fpu softvfp
   4              		.eabi_attribute 20, 1
   5              		.eabi_attribute 21, 1
   6              		.eabi_attribute 23, 3
   7              		.eabi_attribute 24, 1
   8              		.eabi_attribute 25, 1
   9              		.eabi_attribute 26, 1
  10              		.eabi_attribute 30, 1
  11              		.eabi_attribute 34, 1
  12              		.eabi_attribute 18, 4
  13              		.thumb
  14              		.syntax unified
  15              		.file	"stm32f10x_it.c"
  16              		.text
  17              	.Ltext0:
  18              		.cfi_sections	.debug_frame
  19              		.section	.text.NMI_Handler,"ax",%progbits
  20              		.align	2
  21              		.global	NMI_Handler
  22              		.thumb
  23              		.thumb_func
  25              	NMI_Handler:
  26              	.LFB28:
  27              		.file 1 "Src/stm32f10x_it.c"
   1:Src/stm32f10x_it.c **** /**
   2:Src/stm32f10x_it.c ****   ******************************************************************************
   3:Src/stm32f10x_it.c ****   * @file    SysTick/stm32f10x_it.c 
   4:Src/stm32f10x_it.c ****   * @author  MCD Application Team
   5:Src/stm32f10x_it.c ****   * @version V3.1.0
   6:Src/stm32f10x_it.c ****   * @date    06/19/2009
   7:Src/stm32f10x_it.c ****   * @brief   Main Interrupt Service Routines.
   8:Src/stm32f10x_it.c ****   *          This file provides template for all exceptions handler and peripherals
   9:Src/stm32f10x_it.c ****   *          interrupt service routine.
  10:Src/stm32f10x_it.c ****   ******************************************************************************
  11:Src/stm32f10x_it.c ****   * @copy
  12:Src/stm32f10x_it.c ****   *
  13:Src/stm32f10x_it.c **** * THE PRESENT FIRMWARE WHICH IS FOR GUIDANCE ONLY AIMS AT PROVIDING CUSTOMERS
  14:Src/stm32f10x_it.c ****   * WITH CODING INFORMATION REGARDING THEIR PRODUCTS IN ORDER FOR THEM TO SAVE
  15:Src/stm32f10x_it.c ****   * TIME. AS A RESULT, STMICROELECTRONICS SHALL NOT BE HELD LIABLE FOR ANY
  16:Src/stm32f10x_it.c ****   * DIRECT, INDIRECT OR CONSEQUENTIAL DAMAGES WITH RESPECT TO ANY CLAIMS ARISING
  17:Src/stm32f10x_it.c ****   * FROM THE CONTENT OF SUCH FIRMWARE AND/OR THE USE MADE BY CUSTOMERS OF THE
  18:Src/stm32f10x_it.c ****   * CODING INFORMATION CONTAINED HEREIN IN CONNECTION WITH THEIR PRODUCTS.
  19:Src/stm32f10x_it.c ****   *
  20:Src/stm32f10x_it.c ****   * <h2><center>&copy; COPYRIGHT 2009 STMicroelectronics</center></h2>
  21:Src/stm32f10x_it.c ****   */ 
  22:Src/stm32f10x_it.c **** 
  23:Src/stm32f10x_it.c **** /* Includes ------------------------------------------------------------------*/
  24:Src/stm32f10x_it.c **** #include "stm32f10x_it.h"
  25:Src/stm32f10x_it.c **** #include "stm32f10x_exti.h"
  26:Src/stm32f10x_it.c **** #include "stm32f10x_dma.h"
  27:Src/stm32f10x_it.c **** 
  28:Src/stm32f10x_it.c **** #include "hw_config.h"
  29:Src/stm32f10x_it.c **** 
  30:Src/stm32f10x_it.c **** /* Private typedef -----------------------------------------------------------*/
  31:Src/stm32f10x_it.c **** 
ARM GAS  /var/folders/g9/bbpj86ld7fx45vd1b3pqxmp00000gn/T//ccGuWmWx.s 			page 2


  32:Src/stm32f10x_it.c **** /* Private define ------------------------------------------------------------*/
  33:Src/stm32f10x_it.c **** 
  34:Src/stm32f10x_it.c **** /* Private macro -------------------------------------------------------------*/
  35:Src/stm32f10x_it.c **** 
  36:Src/stm32f10x_it.c **** /* Private variables ---------------------------------------------------------*/
  37:Src/stm32f10x_it.c **** uint8_t Send_Buffer[2];
  38:Src/stm32f10x_it.c **** extern uint32_t ADC_ConvertedValueX;
  39:Src/stm32f10x_it.c **** extern uint32_t ADC_ConvertedValueX_1;
  40:Src/stm32f10x_it.c **** 
  41:Src/stm32f10x_it.c **** /* Private function prototypes -----------------------------------------------*/
  42:Src/stm32f10x_it.c **** /* Private functions ---------------------------------------------------------*/
  43:Src/stm32f10x_it.c **** 
  44:Src/stm32f10x_it.c **** /******************************************************************************/
  45:Src/stm32f10x_it.c **** /*            Cortex-M3 Processor Exceptions Handlers                         */
  46:Src/stm32f10x_it.c **** /******************************************************************************/
  47:Src/stm32f10x_it.c **** 
  48:Src/stm32f10x_it.c **** /**
  49:Src/stm32f10x_it.c ****   * @brief  This function handles NMI exception.
  50:Src/stm32f10x_it.c ****   * @param  None
  51:Src/stm32f10x_it.c ****   * @retval None
  52:Src/stm32f10x_it.c ****   */
  53:Src/stm32f10x_it.c **** void NMI_Handler(void)
  54:Src/stm32f10x_it.c **** {
  28              		.loc 1 54 0
  29              		.cfi_startproc
  30              		@ args = 0, pretend = 0, frame = 0
  31              		@ frame_needed = 0, uses_anonymous_args = 0
  32              		@ link register save eliminated.
  33 0000 7047     		bx	lr
  34              		.cfi_endproc
  35              	.LFE28:
  37 0002 00BF     		.section	.text.HardFault_Handler,"ax",%progbits
  38              		.align	2
  39              		.global	HardFault_Handler
  40              		.thumb
  41              		.thumb_func
  43              	HardFault_Handler:
  44              	.LFB29:
  55:Src/stm32f10x_it.c **** }
  56:Src/stm32f10x_it.c **** 
  57:Src/stm32f10x_it.c **** /**
  58:Src/stm32f10x_it.c ****   * @brief  This function handles Hard Fault exception.
  59:Src/stm32f10x_it.c ****   * @param  None
  60:Src/stm32f10x_it.c ****   * @retval None
  61:Src/stm32f10x_it.c ****   */
  62:Src/stm32f10x_it.c **** void HardFault_Handler(void)
  63:Src/stm32f10x_it.c **** {
  45              		.loc 1 63 0
  46              		.cfi_startproc
  47              		@ Volatile: function does not return.
  48              		@ args = 0, pretend = 0, frame = 0
  49              		@ frame_needed = 0, uses_anonymous_args = 0
  50              		@ link register save eliminated.
  51              	.L3:
  52 0000 FEE7     		b	.L3
  53              		.cfi_endproc
  54              	.LFE29:
ARM GAS  /var/folders/g9/bbpj86ld7fx45vd1b3pqxmp00000gn/T//ccGuWmWx.s 			page 3


  56 0002 00BF     		.section	.text.MemManage_Handler,"ax",%progbits
  57              		.align	2
  58              		.global	MemManage_Handler
  59              		.thumb
  60              		.thumb_func
  62              	MemManage_Handler:
  63              	.LFB30:
  64:Src/stm32f10x_it.c ****     /* Go to infinite loop when Hard Fault exception occurs */
  65:Src/stm32f10x_it.c ****     while (1)
  66:Src/stm32f10x_it.c ****     {
  67:Src/stm32f10x_it.c ****     }
  68:Src/stm32f10x_it.c **** }
  69:Src/stm32f10x_it.c **** 
  70:Src/stm32f10x_it.c **** /**
  71:Src/stm32f10x_it.c ****   * @brief  This function handles Memory Manage exception.
  72:Src/stm32f10x_it.c ****   * @param  None
  73:Src/stm32f10x_it.c ****   * @retval None
  74:Src/stm32f10x_it.c ****   */
  75:Src/stm32f10x_it.c **** void MemManage_Handler(void)
  76:Src/stm32f10x_it.c **** {
  64              		.loc 1 76 0
  65              		.cfi_startproc
  66              		@ Volatile: function does not return.
  67              		@ args = 0, pretend = 0, frame = 0
  68              		@ frame_needed = 0, uses_anonymous_args = 0
  69              		@ link register save eliminated.
  70              	.L5:
  71 0000 FEE7     		b	.L5
  72              		.cfi_endproc
  73              	.LFE30:
  75 0002 00BF     		.section	.text.BusFault_Handler,"ax",%progbits
  76              		.align	2
  77              		.global	BusFault_Handler
  78              		.thumb
  79              		.thumb_func
  81              	BusFault_Handler:
  82              	.LFB31:
  77:Src/stm32f10x_it.c ****     /* Go to infinite loop when Memory Manage exception occurs */
  78:Src/stm32f10x_it.c ****     while (1)
  79:Src/stm32f10x_it.c ****     {
  80:Src/stm32f10x_it.c ****     }
  81:Src/stm32f10x_it.c **** }
  82:Src/stm32f10x_it.c **** 
  83:Src/stm32f10x_it.c **** /**
  84:Src/stm32f10x_it.c ****   * @brief  This function handles Bus Fault exception.
  85:Src/stm32f10x_it.c ****   * @param  None
  86:Src/stm32f10x_it.c ****   * @retval None
  87:Src/stm32f10x_it.c ****   */
  88:Src/stm32f10x_it.c **** void BusFault_Handler(void)
  89:Src/stm32f10x_it.c **** {
  83              		.loc 1 89 0
  84              		.cfi_startproc
  85              		@ Volatile: function does not return.
  86              		@ args = 0, pretend = 0, frame = 0
  87              		@ frame_needed = 0, uses_anonymous_args = 0
  88              		@ link register save eliminated.
  89              	.L7:
ARM GAS  /var/folders/g9/bbpj86ld7fx45vd1b3pqxmp00000gn/T//ccGuWmWx.s 			page 4


  90 0000 FEE7     		b	.L7
  91              		.cfi_endproc
  92              	.LFE31:
  94 0002 00BF     		.section	.text.UsageFault_Handler,"ax",%progbits
  95              		.align	2
  96              		.global	UsageFault_Handler
  97              		.thumb
  98              		.thumb_func
 100              	UsageFault_Handler:
 101              	.LFB32:
  90:Src/stm32f10x_it.c ****     /* Go to infinite loop when Bus Fault exception occurs */
  91:Src/stm32f10x_it.c ****     while (1)
  92:Src/stm32f10x_it.c ****     {
  93:Src/stm32f10x_it.c ****     }
  94:Src/stm32f10x_it.c **** }
  95:Src/stm32f10x_it.c **** 
  96:Src/stm32f10x_it.c **** /**
  97:Src/stm32f10x_it.c ****   * @brief  This function handles Usage Fault exception.
  98:Src/stm32f10x_it.c ****   * @param  None
  99:Src/stm32f10x_it.c ****   * @retval None
 100:Src/stm32f10x_it.c ****   */
 101:Src/stm32f10x_it.c **** void UsageFault_Handler(void)
 102:Src/stm32f10x_it.c **** {
 102              		.loc 1 102 0
 103              		.cfi_startproc
 104              		@ Volatile: function does not return.
 105              		@ args = 0, pretend = 0, frame = 0
 106              		@ frame_needed = 0, uses_anonymous_args = 0
 107              		@ link register save eliminated.
 108              	.L9:
 109 0000 FEE7     		b	.L9
 110              		.cfi_endproc
 111              	.LFE32:
 113 0002 00BF     		.section	.text.SVC_Handler,"ax",%progbits
 114              		.align	2
 115              		.global	SVC_Handler
 116              		.thumb
 117              		.thumb_func
 119              	SVC_Handler:
 120              	.LFB33:
 103:Src/stm32f10x_it.c ****     /* Go to infinite loop when Usage Fault exception occurs */
 104:Src/stm32f10x_it.c ****     while (1)
 105:Src/stm32f10x_it.c ****     {
 106:Src/stm32f10x_it.c ****     }
 107:Src/stm32f10x_it.c **** }
 108:Src/stm32f10x_it.c **** 
 109:Src/stm32f10x_it.c **** /**
 110:Src/stm32f10x_it.c ****   * @brief  This function handles SVCall exception.
 111:Src/stm32f10x_it.c ****   * @param  None
 112:Src/stm32f10x_it.c ****   * @retval None
 113:Src/stm32f10x_it.c ****   */
 114:Src/stm32f10x_it.c **** void SVC_Handler(void)
 115:Src/stm32f10x_it.c **** {
 121              		.loc 1 115 0
 122              		.cfi_startproc
 123              		@ args = 0, pretend = 0, frame = 0
 124              		@ frame_needed = 0, uses_anonymous_args = 0
ARM GAS  /var/folders/g9/bbpj86ld7fx45vd1b3pqxmp00000gn/T//ccGuWmWx.s 			page 5


 125              		@ link register save eliminated.
 126 0000 7047     		bx	lr
 127              		.cfi_endproc
 128              	.LFE33:
 130 0002 00BF     		.section	.text.DebugMon_Handler,"ax",%progbits
 131              		.align	2
 132              		.global	DebugMon_Handler
 133              		.thumb
 134              		.thumb_func
 136              	DebugMon_Handler:
 137              	.LFB34:
 116:Src/stm32f10x_it.c **** }
 117:Src/stm32f10x_it.c **** 
 118:Src/stm32f10x_it.c **** /**
 119:Src/stm32f10x_it.c ****   * @brief  This function handles Debug Monitor exception.
 120:Src/stm32f10x_it.c ****   * @param  None
 121:Src/stm32f10x_it.c ****   * @retval None
 122:Src/stm32f10x_it.c ****   */
 123:Src/stm32f10x_it.c **** void DebugMon_Handler(void)
 124:Src/stm32f10x_it.c **** {
 138              		.loc 1 124 0
 139              		.cfi_startproc
 140              		@ args = 0, pretend = 0, frame = 0
 141              		@ frame_needed = 0, uses_anonymous_args = 0
 142              		@ link register save eliminated.
 143 0000 7047     		bx	lr
 144              		.cfi_endproc
 145              	.LFE34:
 147 0002 00BF     		.section	.text.PendSV_Handler,"ax",%progbits
 148              		.align	2
 149              		.global	PendSV_Handler
 150              		.thumb
 151              		.thumb_func
 153              	PendSV_Handler:
 154              	.LFB35:
 125:Src/stm32f10x_it.c **** }
 126:Src/stm32f10x_it.c **** 
 127:Src/stm32f10x_it.c **** /**
 128:Src/stm32f10x_it.c ****   * @brief  This function handles PendSV_Handler exception.
 129:Src/stm32f10x_it.c ****   * @param  None
 130:Src/stm32f10x_it.c ****   * @retval None
 131:Src/stm32f10x_it.c ****   */
 132:Src/stm32f10x_it.c **** void PendSV_Handler(void)
 133:Src/stm32f10x_it.c **** {
 155              		.loc 1 133 0
 156              		.cfi_startproc
 157              		@ args = 0, pretend = 0, frame = 0
 158              		@ frame_needed = 0, uses_anonymous_args = 0
 159              		@ link register save eliminated.
 160 0000 7047     		bx	lr
 161              		.cfi_endproc
 162              	.LFE35:
 164 0002 00BF     		.section	.text.SysTick_Handler,"ax",%progbits
 165              		.align	2
 166              		.global	SysTick_Handler
 167              		.thumb
 168              		.thumb_func
ARM GAS  /var/folders/g9/bbpj86ld7fx45vd1b3pqxmp00000gn/T//ccGuWmWx.s 			page 6


 170              	SysTick_Handler:
 171              	.LFB36:
 134:Src/stm32f10x_it.c **** }
 135:Src/stm32f10x_it.c **** 
 136:Src/stm32f10x_it.c **** /**
 137:Src/stm32f10x_it.c ****   * @brief  This function handles SysTick Handler.
 138:Src/stm32f10x_it.c ****   * @param  None
 139:Src/stm32f10x_it.c ****   * @retval None
 140:Src/stm32f10x_it.c ****   */
 141:Src/stm32f10x_it.c **** void SysTick_Handler(void)
 142:Src/stm32f10x_it.c **** {
 172              		.loc 1 142 0
 173              		.cfi_startproc
 174              		@ args = 0, pretend = 0, frame = 0
 175              		@ frame_needed = 0, uses_anonymous_args = 0
 176              		.loc 1 142 0
 177 0000 08B5     		push	{r3, lr}
 178              	.LCFI0:
 179              		.cfi_def_cfa_offset 8
 180              		.cfi_offset 3, -8
 181              		.cfi_offset 14, -4
 143:Src/stm32f10x_it.c ****     TimingDelay_Decrement();
 182              		.loc 1 143 0
 183 0002 FFF7FEFF 		bl	TimingDelay_Decrement
 184              	.LVL0:
 185 0006 08BD     		pop	{r3, pc}
 186              		.cfi_endproc
 187              	.LFE36:
 189              		.section	.text.WWDG_IRQHandler,"ax",%progbits
 190              		.align	2
 191              		.global	WWDG_IRQHandler
 192              		.thumb
 193              		.thumb_func
 195              	WWDG_IRQHandler:
 196              	.LFB37:
 144:Src/stm32f10x_it.c **** }
 145:Src/stm32f10x_it.c **** 
 146:Src/stm32f10x_it.c **** /******************************************************************************/
 147:Src/stm32f10x_it.c **** /*            STM32F10x Peripherals Interrupt Handlers                        */
 148:Src/stm32f10x_it.c **** /*  Add here the Interrupt Handler for the used peripheral(s) (PPP), for the  */
 149:Src/stm32f10x_it.c **** /*  available peripheral interrupt handler's name please refer to the startup */
 150:Src/stm32f10x_it.c **** /*  file (startup_stm32f10x_xx.s).                                            */
 151:Src/stm32f10x_it.c **** /******************************************************************************/
 152:Src/stm32f10x_it.c **** 
 153:Src/stm32f10x_it.c **** /*******************************************************************************
 154:Src/stm32f10x_it.c **** * Function Name  : WWDG_IRQHandler
 155:Src/stm32f10x_it.c **** * Description    : This function handles WWDG interrupt request.
 156:Src/stm32f10x_it.c **** * Input          : None
 157:Src/stm32f10x_it.c **** * Output         : None
 158:Src/stm32f10x_it.c **** * Return         : None
 159:Src/stm32f10x_it.c **** *******************************************************************************/
 160:Src/stm32f10x_it.c **** void WWDG_IRQHandler(void)
 161:Src/stm32f10x_it.c **** {
 197              		.loc 1 161 0
 198              		.cfi_startproc
 199              		@ args = 0, pretend = 0, frame = 0
 200              		@ frame_needed = 0, uses_anonymous_args = 0
ARM GAS  /var/folders/g9/bbpj86ld7fx45vd1b3pqxmp00000gn/T//ccGuWmWx.s 			page 7


 201              		@ link register save eliminated.
 202 0000 7047     		bx	lr
 203              		.cfi_endproc
 204              	.LFE37:
 206 0002 00BF     		.section	.text.PVD_IRQHandler,"ax",%progbits
 207              		.align	2
 208              		.global	PVD_IRQHandler
 209              		.thumb
 210              		.thumb_func
 212              	PVD_IRQHandler:
 213              	.LFB38:
 162:Src/stm32f10x_it.c **** }
 163:Src/stm32f10x_it.c **** 
 164:Src/stm32f10x_it.c **** /*******************************************************************************
 165:Src/stm32f10x_it.c **** * Function Name  : PVD_IRQHandler
 166:Src/stm32f10x_it.c **** * Description    : This function handles PVD interrupt request.
 167:Src/stm32f10x_it.c **** * Input          : None
 168:Src/stm32f10x_it.c **** * Output         : None
 169:Src/stm32f10x_it.c **** * Return         : None
 170:Src/stm32f10x_it.c **** *******************************************************************************/
 171:Src/stm32f10x_it.c **** void PVD_IRQHandler(void)
 172:Src/stm32f10x_it.c **** {
 214              		.loc 1 172 0
 215              		.cfi_startproc
 216              		@ args = 0, pretend = 0, frame = 0
 217              		@ frame_needed = 0, uses_anonymous_args = 0
 218              		@ link register save eliminated.
 219 0000 7047     		bx	lr
 220              		.cfi_endproc
 221              	.LFE38:
 223 0002 00BF     		.section	.text.TAMPER_IRQHandler,"ax",%progbits
 224              		.align	2
 225              		.global	TAMPER_IRQHandler
 226              		.thumb
 227              		.thumb_func
 229              	TAMPER_IRQHandler:
 230              	.LFB39:
 173:Src/stm32f10x_it.c **** }
 174:Src/stm32f10x_it.c **** 
 175:Src/stm32f10x_it.c **** /*******************************************************************************
 176:Src/stm32f10x_it.c **** * Function Name  : TAMPER_IRQHandler
 177:Src/stm32f10x_it.c **** * Description    : This function handles Tamper interrupt request. 
 178:Src/stm32f10x_it.c **** * Input          : None
 179:Src/stm32f10x_it.c **** * Output         : None
 180:Src/stm32f10x_it.c **** * Return         : None
 181:Src/stm32f10x_it.c **** *******************************************************************************/
 182:Src/stm32f10x_it.c **** void TAMPER_IRQHandler(void)
 183:Src/stm32f10x_it.c **** {
 231              		.loc 1 183 0
 232              		.cfi_startproc
 233              		@ args = 0, pretend = 0, frame = 0
 234              		@ frame_needed = 0, uses_anonymous_args = 0
 235              		@ link register save eliminated.
 236 0000 7047     		bx	lr
 237              		.cfi_endproc
 238              	.LFE39:
 240 0002 00BF     		.section	.text.RTC_IRQHandler,"ax",%progbits
ARM GAS  /var/folders/g9/bbpj86ld7fx45vd1b3pqxmp00000gn/T//ccGuWmWx.s 			page 8


 241              		.align	2
 242              		.global	RTC_IRQHandler
 243              		.thumb
 244              		.thumb_func
 246              	RTC_IRQHandler:
 247              	.LFB40:
 184:Src/stm32f10x_it.c **** }
 185:Src/stm32f10x_it.c **** 
 186:Src/stm32f10x_it.c **** /*******************************************************************************
 187:Src/stm32f10x_it.c **** * Function Name  : RTC_IRQHandler
 188:Src/stm32f10x_it.c **** * Description    : This function handles RTC global interrupt request.
 189:Src/stm32f10x_it.c **** * Input          : None
 190:Src/stm32f10x_it.c **** * Output         : None
 191:Src/stm32f10x_it.c **** * Return         : None
 192:Src/stm32f10x_it.c **** *******************************************************************************/
 193:Src/stm32f10x_it.c **** void RTC_IRQHandler(void)
 194:Src/stm32f10x_it.c **** {
 248              		.loc 1 194 0
 249              		.cfi_startproc
 250              		@ args = 0, pretend = 0, frame = 0
 251              		@ frame_needed = 0, uses_anonymous_args = 0
 252              		@ link register save eliminated.
 253 0000 7047     		bx	lr
 254              		.cfi_endproc
 255              	.LFE40:
 257 0002 00BF     		.section	.text.FLASH_IRQHandler,"ax",%progbits
 258              		.align	2
 259              		.global	FLASH_IRQHandler
 260              		.thumb
 261              		.thumb_func
 263              	FLASH_IRQHandler:
 264              	.LFB41:
 195:Src/stm32f10x_it.c **** }
 196:Src/stm32f10x_it.c **** 
 197:Src/stm32f10x_it.c **** /*******************************************************************************
 198:Src/stm32f10x_it.c **** * Function Name  : FLASH_IRQHandler
 199:Src/stm32f10x_it.c **** * Description    : This function handles Flash interrupt request.
 200:Src/stm32f10x_it.c **** * Input          : None
 201:Src/stm32f10x_it.c **** * Output         : None
 202:Src/stm32f10x_it.c **** * Return         : None
 203:Src/stm32f10x_it.c **** *******************************************************************************/
 204:Src/stm32f10x_it.c **** void FLASH_IRQHandler(void)
 205:Src/stm32f10x_it.c **** {
 265              		.loc 1 205 0
 266              		.cfi_startproc
 267              		@ args = 0, pretend = 0, frame = 0
 268              		@ frame_needed = 0, uses_anonymous_args = 0
 269              		@ link register save eliminated.
 270 0000 7047     		bx	lr
 271              		.cfi_endproc
 272              	.LFE41:
 274 0002 00BF     		.section	.text.RCC_IRQHandler,"ax",%progbits
 275              		.align	2
 276              		.global	RCC_IRQHandler
 277              		.thumb
 278              		.thumb_func
 280              	RCC_IRQHandler:
ARM GAS  /var/folders/g9/bbpj86ld7fx45vd1b3pqxmp00000gn/T//ccGuWmWx.s 			page 9


 281              	.LFB42:
 206:Src/stm32f10x_it.c **** }
 207:Src/stm32f10x_it.c **** 
 208:Src/stm32f10x_it.c **** /*******************************************************************************
 209:Src/stm32f10x_it.c **** * Function Name  : RCC_IRQHandler
 210:Src/stm32f10x_it.c **** * Description    : This function handles RCC interrupt request. 
 211:Src/stm32f10x_it.c **** * Input          : None
 212:Src/stm32f10x_it.c **** * Output         : None
 213:Src/stm32f10x_it.c **** * Return         : None
 214:Src/stm32f10x_it.c **** *******************************************************************************/
 215:Src/stm32f10x_it.c **** void RCC_IRQHandler(void)
 216:Src/stm32f10x_it.c **** {
 282              		.loc 1 216 0
 283              		.cfi_startproc
 284              		@ args = 0, pretend = 0, frame = 0
 285              		@ frame_needed = 0, uses_anonymous_args = 0
 286              		@ link register save eliminated.
 287 0000 7047     		bx	lr
 288              		.cfi_endproc
 289              	.LFE42:
 291 0002 00BF     		.section	.text.EXTI0_IRQHandler,"ax",%progbits
 292              		.align	2
 293              		.global	EXTI0_IRQHandler
 294              		.thumb
 295              		.thumb_func
 297              	EXTI0_IRQHandler:
 298              	.LFB43:
 217:Src/stm32f10x_it.c **** }
 218:Src/stm32f10x_it.c **** 
 219:Src/stm32f10x_it.c **** /*******************************************************************************
 220:Src/stm32f10x_it.c **** * Function Name  : EXTI0_IRQHandler
 221:Src/stm32f10x_it.c **** * Description    : This function handles External interrupt Line 0 request.
 222:Src/stm32f10x_it.c **** * Input          : None
 223:Src/stm32f10x_it.c **** * Output         : None
 224:Src/stm32f10x_it.c **** * Return         : None
 225:Src/stm32f10x_it.c **** *******************************************************************************/
 226:Src/stm32f10x_it.c **** void EXTI0_IRQHandler(void)
 227:Src/stm32f10x_it.c **** {
 299              		.loc 1 227 0
 300              		.cfi_startproc
 301              		@ args = 0, pretend = 0, frame = 0
 302              		@ frame_needed = 0, uses_anonymous_args = 0
 303              		@ link register save eliminated.
 304 0000 7047     		bx	lr
 305              		.cfi_endproc
 306              	.LFE43:
 308 0002 00BF     		.section	.text.EXTI1_IRQHandler,"ax",%progbits
 309              		.align	2
 310              		.global	EXTI1_IRQHandler
 311              		.thumb
 312              		.thumb_func
 314              	EXTI1_IRQHandler:
 315              	.LFB44:
 228:Src/stm32f10x_it.c **** 
 229:Src/stm32f10x_it.c **** }
 230:Src/stm32f10x_it.c **** 
 231:Src/stm32f10x_it.c **** /*******************************************************************************
ARM GAS  /var/folders/g9/bbpj86ld7fx45vd1b3pqxmp00000gn/T//ccGuWmWx.s 			page 10


 232:Src/stm32f10x_it.c **** * Function Name  : EXTI1_IRQHandler
 233:Src/stm32f10x_it.c **** * Description    : This function handles External interrupt Line 1 request.
 234:Src/stm32f10x_it.c **** * Input          : None
 235:Src/stm32f10x_it.c **** * Output         : None
 236:Src/stm32f10x_it.c **** * Return         : None
 237:Src/stm32f10x_it.c **** *******************************************************************************/
 238:Src/stm32f10x_it.c **** void EXTI1_IRQHandler(void)
 239:Src/stm32f10x_it.c **** {
 316              		.loc 1 239 0
 317              		.cfi_startproc
 318              		@ args = 0, pretend = 0, frame = 0
 319              		@ frame_needed = 0, uses_anonymous_args = 0
 320              		@ link register save eliminated.
 321 0000 7047     		bx	lr
 322              		.cfi_endproc
 323              	.LFE44:
 325 0002 00BF     		.section	.text.EXTI2_IRQHandler,"ax",%progbits
 326              		.align	2
 327              		.global	EXTI2_IRQHandler
 328              		.thumb
 329              		.thumb_func
 331              	EXTI2_IRQHandler:
 332              	.LFB45:
 240:Src/stm32f10x_it.c **** }
 241:Src/stm32f10x_it.c **** 
 242:Src/stm32f10x_it.c **** /*******************************************************************************
 243:Src/stm32f10x_it.c **** * Function Name  : EXTI2_IRQHandler
 244:Src/stm32f10x_it.c **** * Description    : This function handles External interrupt Line 2 request.
 245:Src/stm32f10x_it.c **** * Input          : None
 246:Src/stm32f10x_it.c **** * Output         : None
 247:Src/stm32f10x_it.c **** * Return         : None
 248:Src/stm32f10x_it.c **** *******************************************************************************/
 249:Src/stm32f10x_it.c **** void EXTI2_IRQHandler(void)
 250:Src/stm32f10x_it.c **** {
 333              		.loc 1 250 0
 334              		.cfi_startproc
 335              		@ args = 0, pretend = 0, frame = 0
 336              		@ frame_needed = 0, uses_anonymous_args = 0
 337              		@ link register save eliminated.
 338 0000 7047     		bx	lr
 339              		.cfi_endproc
 340              	.LFE45:
 342 0002 00BF     		.section	.text.EXTI3_IRQHandler,"ax",%progbits
 343              		.align	2
 344              		.global	EXTI3_IRQHandler
 345              		.thumb
 346              		.thumb_func
 348              	EXTI3_IRQHandler:
 349              	.LFB46:
 251:Src/stm32f10x_it.c **** }
 252:Src/stm32f10x_it.c **** 
 253:Src/stm32f10x_it.c **** /*******************************************************************************
 254:Src/stm32f10x_it.c **** * Function Name  : EXTI3_IRQHandler
 255:Src/stm32f10x_it.c **** * Description    : This function handles External interrupt Line 3 request.
 256:Src/stm32f10x_it.c **** * Input          : None
 257:Src/stm32f10x_it.c **** * Output         : None
 258:Src/stm32f10x_it.c **** * Return         : None
ARM GAS  /var/folders/g9/bbpj86ld7fx45vd1b3pqxmp00000gn/T//ccGuWmWx.s 			page 11


 259:Src/stm32f10x_it.c **** *******************************************************************************/
 260:Src/stm32f10x_it.c **** void EXTI3_IRQHandler(void)
 261:Src/stm32f10x_it.c **** {
 350              		.loc 1 261 0
 351              		.cfi_startproc
 352              		@ args = 0, pretend = 0, frame = 0
 353              		@ frame_needed = 0, uses_anonymous_args = 0
 354              		@ link register save eliminated.
 355 0000 7047     		bx	lr
 356              		.cfi_endproc
 357              	.LFE46:
 359 0002 00BF     		.section	.text.EXTI4_IRQHandler,"ax",%progbits
 360              		.align	2
 361              		.global	EXTI4_IRQHandler
 362              		.thumb
 363              		.thumb_func
 365              	EXTI4_IRQHandler:
 366              	.LFB47:
 262:Src/stm32f10x_it.c **** }
 263:Src/stm32f10x_it.c **** 
 264:Src/stm32f10x_it.c **** /*******************************************************************************
 265:Src/stm32f10x_it.c **** * Function Name  : EXTI4_IRQHandler
 266:Src/stm32f10x_it.c **** * Description    : This function handles External interrupt Line 4 request.
 267:Src/stm32f10x_it.c **** * Input          : None
 268:Src/stm32f10x_it.c **** * Output         : None
 269:Src/stm32f10x_it.c **** * Return         : None
 270:Src/stm32f10x_it.c **** *******************************************************************************/
 271:Src/stm32f10x_it.c **** void EXTI4_IRQHandler(void)
 272:Src/stm32f10x_it.c **** {
 367              		.loc 1 272 0
 368              		.cfi_startproc
 369              		@ args = 0, pretend = 0, frame = 0
 370              		@ frame_needed = 0, uses_anonymous_args = 0
 371              		@ link register save eliminated.
 372 0000 7047     		bx	lr
 373              		.cfi_endproc
 374              	.LFE47:
 376 0002 00BF     		.section	.text.DMA1_Channel1_IRQHandler,"ax",%progbits
 377              		.align	2
 378              		.global	DMA1_Channel1_IRQHandler
 379              		.thumb
 380              		.thumb_func
 382              	DMA1_Channel1_IRQHandler:
 383              	.LFB48:
 273:Src/stm32f10x_it.c **** }
 274:Src/stm32f10x_it.c **** 
 275:Src/stm32f10x_it.c **** /*******************************************************************************
 276:Src/stm32f10x_it.c **** * Function Name  : DMA1_Channel1_IRQHandler
 277:Src/stm32f10x_it.c **** * Description    : This function handles DMA1 Channel 1 interrupt request.
 278:Src/stm32f10x_it.c **** * Input          : None
 279:Src/stm32f10x_it.c **** * Output         : None
 280:Src/stm32f10x_it.c **** * Return         : None
 281:Src/stm32f10x_it.c **** *******************************************************************************/
 282:Src/stm32f10x_it.c **** void DMA1_Channel1_IRQHandler(void)
 283:Src/stm32f10x_it.c **** {
 384              		.loc 1 283 0
 385              		.cfi_startproc
ARM GAS  /var/folders/g9/bbpj86ld7fx45vd1b3pqxmp00000gn/T//ccGuWmWx.s 			page 12


 386              		@ args = 0, pretend = 0, frame = 0
 387              		@ frame_needed = 0, uses_anonymous_args = 0
 388              		@ link register save eliminated.
 389 0000 7047     		bx	lr
 390              		.cfi_endproc
 391              	.LFE48:
 393 0002 00BF     		.section	.text.DMA1_Channel2_IRQHandler,"ax",%progbits
 394              		.align	2
 395              		.global	DMA1_Channel2_IRQHandler
 396              		.thumb
 397              		.thumb_func
 399              	DMA1_Channel2_IRQHandler:
 400              	.LFB49:
 284:Src/stm32f10x_it.c **** }
 285:Src/stm32f10x_it.c **** 
 286:Src/stm32f10x_it.c **** /*******************************************************************************
 287:Src/stm32f10x_it.c **** * Function Name  : DMA1_Channel2_IRQHandler
 288:Src/stm32f10x_it.c **** * Description    : This function handles DMA1 Channel 2 interrupt request.
 289:Src/stm32f10x_it.c **** * Input          : None
 290:Src/stm32f10x_it.c **** * Output         : None
 291:Src/stm32f10x_it.c **** * Return         : None
 292:Src/stm32f10x_it.c **** *******************************************************************************/
 293:Src/stm32f10x_it.c **** void DMA1_Channel2_IRQHandler(void)
 294:Src/stm32f10x_it.c **** {
 401              		.loc 1 294 0
 402              		.cfi_startproc
 403              		@ args = 0, pretend = 0, frame = 0
 404              		@ frame_needed = 0, uses_anonymous_args = 0
 405              		@ link register save eliminated.
 406 0000 7047     		bx	lr
 407              		.cfi_endproc
 408              	.LFE49:
 410 0002 00BF     		.section	.text.DMA1_Channel3_IRQHandler,"ax",%progbits
 411              		.align	2
 412              		.global	DMA1_Channel3_IRQHandler
 413              		.thumb
 414              		.thumb_func
 416              	DMA1_Channel3_IRQHandler:
 417              	.LFB50:
 295:Src/stm32f10x_it.c **** }
 296:Src/stm32f10x_it.c **** 
 297:Src/stm32f10x_it.c **** /*******************************************************************************
 298:Src/stm32f10x_it.c **** * Function Name  : DMA1_Channel3_IRQHandler
 299:Src/stm32f10x_it.c **** * Description    : This function handles DMA1 Channel 3 interrupt request.
 300:Src/stm32f10x_it.c **** * Input          : None
 301:Src/stm32f10x_it.c **** * Output         : None
 302:Src/stm32f10x_it.c **** * Return         : None
 303:Src/stm32f10x_it.c **** *******************************************************************************/
 304:Src/stm32f10x_it.c **** void DMA1_Channel3_IRQHandler(void)
 305:Src/stm32f10x_it.c **** {
 418              		.loc 1 305 0
 419              		.cfi_startproc
 420              		@ args = 0, pretend = 0, frame = 0
 421              		@ frame_needed = 0, uses_anonymous_args = 0
 422              		@ link register save eliminated.
 423 0000 7047     		bx	lr
 424              		.cfi_endproc
ARM GAS  /var/folders/g9/bbpj86ld7fx45vd1b3pqxmp00000gn/T//ccGuWmWx.s 			page 13


 425              	.LFE50:
 427 0002 00BF     		.section	.text.DMA1_Channel4_IRQHandler,"ax",%progbits
 428              		.align	2
 429              		.global	DMA1_Channel4_IRQHandler
 430              		.thumb
 431              		.thumb_func
 433              	DMA1_Channel4_IRQHandler:
 434              	.LFB51:
 306:Src/stm32f10x_it.c **** }
 307:Src/stm32f10x_it.c **** 
 308:Src/stm32f10x_it.c **** /*******************************************************************************
 309:Src/stm32f10x_it.c **** * Function Name  : DMA1_Channel4_IRQHandler
 310:Src/stm32f10x_it.c **** * Description    : This function handles DMA1 Channel 4 interrupt request.
 311:Src/stm32f10x_it.c **** * Input          : None
 312:Src/stm32f10x_it.c **** * Output         : None
 313:Src/stm32f10x_it.c **** * Return         : None
 314:Src/stm32f10x_it.c **** *******************************************************************************/
 315:Src/stm32f10x_it.c **** void DMA1_Channel4_IRQHandler(void)
 316:Src/stm32f10x_it.c **** {
 435              		.loc 1 316 0
 436              		.cfi_startproc
 437              		@ args = 0, pretend = 0, frame = 0
 438              		@ frame_needed = 0, uses_anonymous_args = 0
 439              		@ link register save eliminated.
 440 0000 7047     		bx	lr
 441              		.cfi_endproc
 442              	.LFE51:
 444 0002 00BF     		.section	.text.DMA1_Channel5_IRQHandler,"ax",%progbits
 445              		.align	2
 446              		.global	DMA1_Channel5_IRQHandler
 447              		.thumb
 448              		.thumb_func
 450              	DMA1_Channel5_IRQHandler:
 451              	.LFB52:
 317:Src/stm32f10x_it.c **** }
 318:Src/stm32f10x_it.c **** 
 319:Src/stm32f10x_it.c **** /*******************************************************************************
 320:Src/stm32f10x_it.c **** * Function Name  : DMA1_Channel5_IRQHandler
 321:Src/stm32f10x_it.c **** * Description    : This function handles DMA1 Channel 5 interrupt request.
 322:Src/stm32f10x_it.c **** * Input          : None
 323:Src/stm32f10x_it.c **** * Output         : None
 324:Src/stm32f10x_it.c **** * Return         : None
 325:Src/stm32f10x_it.c **** *******************************************************************************/
 326:Src/stm32f10x_it.c **** void DMA1_Channel5_IRQHandler(void)
 327:Src/stm32f10x_it.c **** {
 452              		.loc 1 327 0
 453              		.cfi_startproc
 454              		@ args = 0, pretend = 0, frame = 0
 455              		@ frame_needed = 0, uses_anonymous_args = 0
 456              		@ link register save eliminated.
 457 0000 7047     		bx	lr
 458              		.cfi_endproc
 459              	.LFE52:
 461 0002 00BF     		.section	.text.DMA1_Channel6_IRQHandler,"ax",%progbits
 462              		.align	2
 463              		.global	DMA1_Channel6_IRQHandler
 464              		.thumb
ARM GAS  /var/folders/g9/bbpj86ld7fx45vd1b3pqxmp00000gn/T//ccGuWmWx.s 			page 14


 465              		.thumb_func
 467              	DMA1_Channel6_IRQHandler:
 468              	.LFB53:
 328:Src/stm32f10x_it.c **** }
 329:Src/stm32f10x_it.c **** 
 330:Src/stm32f10x_it.c **** /*******************************************************************************
 331:Src/stm32f10x_it.c **** * Function Name  : DMA1_Channel6_IRQHandler
 332:Src/stm32f10x_it.c **** * Description    : This function handles DMA1 Channel 6 interrupt request.
 333:Src/stm32f10x_it.c **** * Input          : None
 334:Src/stm32f10x_it.c **** * Output         : None
 335:Src/stm32f10x_it.c **** * Return         : None
 336:Src/stm32f10x_it.c **** *******************************************************************************/
 337:Src/stm32f10x_it.c **** void DMA1_Channel6_IRQHandler(void)
 338:Src/stm32f10x_it.c **** {
 469              		.loc 1 338 0
 470              		.cfi_startproc
 471              		@ args = 0, pretend = 0, frame = 0
 472              		@ frame_needed = 0, uses_anonymous_args = 0
 473              		@ link register save eliminated.
 474 0000 7047     		bx	lr
 475              		.cfi_endproc
 476              	.LFE53:
 478 0002 00BF     		.section	.text.DMA1_Channel7_IRQHandler,"ax",%progbits
 479              		.align	2
 480              		.global	DMA1_Channel7_IRQHandler
 481              		.thumb
 482              		.thumb_func
 484              	DMA1_Channel7_IRQHandler:
 485              	.LFB54:
 339:Src/stm32f10x_it.c **** }
 340:Src/stm32f10x_it.c **** 
 341:Src/stm32f10x_it.c **** /*******************************************************************************
 342:Src/stm32f10x_it.c **** * Function Name  : DMA1_Channel7_IRQHandler
 343:Src/stm32f10x_it.c **** * Description    : This function handles DMA1 Channel 7 interrupt request.
 344:Src/stm32f10x_it.c **** * Input          : None
 345:Src/stm32f10x_it.c **** * Output         : None
 346:Src/stm32f10x_it.c **** * Return         : None
 347:Src/stm32f10x_it.c **** *******************************************************************************/
 348:Src/stm32f10x_it.c **** void DMA1_Channel7_IRQHandler(void)
 349:Src/stm32f10x_it.c **** {
 486              		.loc 1 349 0
 487              		.cfi_startproc
 488              		@ args = 0, pretend = 0, frame = 0
 489              		@ frame_needed = 0, uses_anonymous_args = 0
 490              		@ link register save eliminated.
 491 0000 7047     		bx	lr
 492              		.cfi_endproc
 493              	.LFE54:
 495 0002 00BF     		.section	.text.ADC1_2_IRQHandler,"ax",%progbits
 496              		.align	2
 497              		.global	ADC1_2_IRQHandler
 498              		.thumb
 499              		.thumb_func
 501              	ADC1_2_IRQHandler:
 502              	.LFB55:
 350:Src/stm32f10x_it.c **** }
 351:Src/stm32f10x_it.c **** 
ARM GAS  /var/folders/g9/bbpj86ld7fx45vd1b3pqxmp00000gn/T//ccGuWmWx.s 			page 15


 352:Src/stm32f10x_it.c **** /*******************************************************************************
 353:Src/stm32f10x_it.c **** * Function Name  : ADC1_2_IRQHandler
 354:Src/stm32f10x_it.c **** * Description    : This function handles ADC1 and ADC2 global interrupts requests.
 355:Src/stm32f10x_it.c **** * Input          : None
 356:Src/stm32f10x_it.c **** * Output         : None
 357:Src/stm32f10x_it.c **** * Return         : None
 358:Src/stm32f10x_it.c **** *******************************************************************************/
 359:Src/stm32f10x_it.c **** void ADC1_2_IRQHandler(void)
 360:Src/stm32f10x_it.c **** {
 503              		.loc 1 360 0
 504              		.cfi_startproc
 505              		@ args = 0, pretend = 0, frame = 0
 506              		@ frame_needed = 0, uses_anonymous_args = 0
 507              		@ link register save eliminated.
 508 0000 7047     		bx	lr
 509              		.cfi_endproc
 510              	.LFE55:
 512 0002 00BF     		.section	.text.USB_HP_CAN1_TX_IRQHandler,"ax",%progbits
 513              		.align	2
 514              		.global	USB_HP_CAN1_TX_IRQHandler
 515              		.thumb
 516              		.thumb_func
 518              	USB_HP_CAN1_TX_IRQHandler:
 519              	.LFB56:
 361:Src/stm32f10x_it.c **** }
 362:Src/stm32f10x_it.c **** 
 363:Src/stm32f10x_it.c **** /*******************************************************************************
 364:Src/stm32f10x_it.c **** * Function Name  : USB_HP_CAN_TX_IRQHandler
 365:Src/stm32f10x_it.c **** * Description    : This function handles USB High Priority or CAN TX interrupts 
 366:Src/stm32f10x_it.c **** *                  requests.
 367:Src/stm32f10x_it.c **** * Input          : None
 368:Src/stm32f10x_it.c **** * Output         : None
 369:Src/stm32f10x_it.c **** * Return         : None
 370:Src/stm32f10x_it.c **** *******************************************************************************/
 371:Src/stm32f10x_it.c **** void USB_HP_CAN1_TX_IRQHandler(void)
 372:Src/stm32f10x_it.c **** {
 520              		.loc 1 372 0
 521              		.cfi_startproc
 522              		@ args = 0, pretend = 0, frame = 0
 523              		@ frame_needed = 0, uses_anonymous_args = 0
 524              		@ link register save eliminated.
 525 0000 7047     		bx	lr
 526              		.cfi_endproc
 527              	.LFE56:
 529 0002 00BF     		.section	.text.USB_LP_CAN1_RX0_IRQHandler,"ax",%progbits
 530              		.align	2
 531              		.global	USB_LP_CAN1_RX0_IRQHandler
 532              		.thumb
 533              		.thumb_func
 535              	USB_LP_CAN1_RX0_IRQHandler:
 536              	.LFB57:
 373:Src/stm32f10x_it.c **** }
 374:Src/stm32f10x_it.c **** 
 375:Src/stm32f10x_it.c **** /*******************************************************************************
 376:Src/stm32f10x_it.c **** * Function Name  : USB_LP_CAN_RX0_IRQHandler
 377:Src/stm32f10x_it.c **** * Description    : This function handles USB Low Priority or CAN RX0 interrupts 
 378:Src/stm32f10x_it.c **** *                  requests.
ARM GAS  /var/folders/g9/bbpj86ld7fx45vd1b3pqxmp00000gn/T//ccGuWmWx.s 			page 16


 379:Src/stm32f10x_it.c **** * Input          : None
 380:Src/stm32f10x_it.c **** * Output         : None
 381:Src/stm32f10x_it.c **** * Return         : None
 382:Src/stm32f10x_it.c **** *******************************************************************************/
 383:Src/stm32f10x_it.c **** void USB_LP_CAN1_RX0_IRQHandler(void)
 384:Src/stm32f10x_it.c **** {
 537              		.loc 1 384 0
 538              		.cfi_startproc
 539              		@ args = 0, pretend = 0, frame = 0
 540              		@ frame_needed = 0, uses_anonymous_args = 0
 541              		@ link register save eliminated.
 542 0000 7047     		bx	lr
 543              		.cfi_endproc
 544              	.LFE57:
 546 0002 00BF     		.section	.text.CAN1_RX1_IRQHandler,"ax",%progbits
 547              		.align	2
 548              		.global	CAN1_RX1_IRQHandler
 549              		.thumb
 550              		.thumb_func
 552              	CAN1_RX1_IRQHandler:
 553              	.LFB58:
 385:Src/stm32f10x_it.c **** }
 386:Src/stm32f10x_it.c **** 
 387:Src/stm32f10x_it.c **** /*******************************************************************************
 388:Src/stm32f10x_it.c **** * Function Name  : CAN_RX1_IRQHandler
 389:Src/stm32f10x_it.c **** * Description    : This function handles CAN RX1 interrupt request.
 390:Src/stm32f10x_it.c **** * Input          : None
 391:Src/stm32f10x_it.c **** * Output         : None
 392:Src/stm32f10x_it.c **** * Return         : None
 393:Src/stm32f10x_it.c **** *******************************************************************************/
 394:Src/stm32f10x_it.c **** void CAN1_RX1_IRQHandler(void)
 395:Src/stm32f10x_it.c **** {
 554              		.loc 1 395 0
 555              		.cfi_startproc
 556              		@ args = 0, pretend = 0, frame = 0
 557              		@ frame_needed = 0, uses_anonymous_args = 0
 558              		@ link register save eliminated.
 559 0000 7047     		bx	lr
 560              		.cfi_endproc
 561              	.LFE58:
 563 0002 00BF     		.section	.text.CAN1_SCE_IRQHandler,"ax",%progbits
 564              		.align	2
 565              		.global	CAN1_SCE_IRQHandler
 566              		.thumb
 567              		.thumb_func
 569              	CAN1_SCE_IRQHandler:
 570              	.LFB59:
 396:Src/stm32f10x_it.c **** }
 397:Src/stm32f10x_it.c **** 
 398:Src/stm32f10x_it.c **** /*******************************************************************************
 399:Src/stm32f10x_it.c **** * Function Name  : CAN_SCE_IRQHandler
 400:Src/stm32f10x_it.c **** * Description    : This function handles CAN SCE interrupt request.
 401:Src/stm32f10x_it.c **** * Input          : None
 402:Src/stm32f10x_it.c **** * Output         : None
 403:Src/stm32f10x_it.c **** * Return         : None
 404:Src/stm32f10x_it.c **** *******************************************************************************/
 405:Src/stm32f10x_it.c **** void CAN1_SCE_IRQHandler(void)
ARM GAS  /var/folders/g9/bbpj86ld7fx45vd1b3pqxmp00000gn/T//ccGuWmWx.s 			page 17


 406:Src/stm32f10x_it.c **** {
 571              		.loc 1 406 0
 572              		.cfi_startproc
 573              		@ args = 0, pretend = 0, frame = 0
 574              		@ frame_needed = 0, uses_anonymous_args = 0
 575              		@ link register save eliminated.
 576 0000 7047     		bx	lr
 577              		.cfi_endproc
 578              	.LFE59:
 580 0002 00BF     		.section	.text.EXTI9_5_IRQHandler,"ax",%progbits
 581              		.align	2
 582              		.global	EXTI9_5_IRQHandler
 583              		.thumb
 584              		.thumb_func
 586              	EXTI9_5_IRQHandler:
 587              	.LFB60:
 407:Src/stm32f10x_it.c **** }
 408:Src/stm32f10x_it.c **** 
 409:Src/stm32f10x_it.c **** /*******************************************************************************
 410:Src/stm32f10x_it.c **** * Function Name  : EXTI9_5_IRQHandler
 411:Src/stm32f10x_it.c **** * Description    : This function handles External lines 9 to 5 interrupt request.
 412:Src/stm32f10x_it.c **** * Input          : None
 413:Src/stm32f10x_it.c **** * Output         : None
 414:Src/stm32f10x_it.c **** * Return         : None
 415:Src/stm32f10x_it.c **** *******************************************************************************/
 416:Src/stm32f10x_it.c **** void EXTI9_5_IRQHandler(void)
 417:Src/stm32f10x_it.c **** {
 588              		.loc 1 417 0
 589              		.cfi_startproc
 590              		@ args = 0, pretend = 0, frame = 0
 591              		@ frame_needed = 0, uses_anonymous_args = 0
 592              		@ link register save eliminated.
 593 0000 7047     		bx	lr
 594              		.cfi_endproc
 595              	.LFE60:
 597 0002 00BF     		.section	.text.TIM1_BRK_IRQHandler,"ax",%progbits
 598              		.align	2
 599              		.global	TIM1_BRK_IRQHandler
 600              		.thumb
 601              		.thumb_func
 603              	TIM1_BRK_IRQHandler:
 604              	.LFB61:
 418:Src/stm32f10x_it.c ****     /*
 419:Src/stm32f10x_it.c **** #ifdef  BOARD_DEF_MANGO_Z1
 420:Src/stm32f10x_it.c ****     if(EXTI_GetITStatus(GPIO_EXTI_Line_RF_GPIO0) != RESET)
 421:Src/stm32f10x_it.c ****     {
 422:Src/stm32f10x_it.c ****         basicRfRxFrmDoneIsr();
 423:Src/stm32f10x_it.c ****         EXTI_ClearITPendingBit(GPIO_EXTI_Line_RF_GPIO0);
 424:Src/stm32f10x_it.c ****     }
 425:Src/stm32f10x_it.c **** #endif
 426:Src/stm32f10x_it.c ****     */
 427:Src/stm32f10x_it.c **** }
 428:Src/stm32f10x_it.c **** 
 429:Src/stm32f10x_it.c **** /*******************************************************************************
 430:Src/stm32f10x_it.c **** * Function Name  : TIM1_BRK_IRQHandler
 431:Src/stm32f10x_it.c **** * Description    : This function handles TIM1 Break interrupt request.
 432:Src/stm32f10x_it.c **** * Input          : None
ARM GAS  /var/folders/g9/bbpj86ld7fx45vd1b3pqxmp00000gn/T//ccGuWmWx.s 			page 18


 433:Src/stm32f10x_it.c **** * Output         : None
 434:Src/stm32f10x_it.c **** * Return         : None
 435:Src/stm32f10x_it.c **** *******************************************************************************/
 436:Src/stm32f10x_it.c **** void TIM1_BRK_IRQHandler(void)
 437:Src/stm32f10x_it.c **** {
 605              		.loc 1 437 0
 606              		.cfi_startproc
 607              		@ args = 0, pretend = 0, frame = 0
 608              		@ frame_needed = 0, uses_anonymous_args = 0
 609              		@ link register save eliminated.
 610 0000 7047     		bx	lr
 611              		.cfi_endproc
 612              	.LFE61:
 614 0002 00BF     		.section	.text.TIM1_UP_IRQHandler,"ax",%progbits
 615              		.align	2
 616              		.global	TIM1_UP_IRQHandler
 617              		.thumb
 618              		.thumb_func
 620              	TIM1_UP_IRQHandler:
 621              	.LFB62:
 438:Src/stm32f10x_it.c **** }
 439:Src/stm32f10x_it.c **** 
 440:Src/stm32f10x_it.c **** /*******************************************************************************
 441:Src/stm32f10x_it.c **** * Function Name  : TIM1_UP_IRQHandler
 442:Src/stm32f10x_it.c **** * Description    : This function handles TIM1 overflow and update interrupt 
 443:Src/stm32f10x_it.c **** *                  request.
 444:Src/stm32f10x_it.c **** * Input          : None
 445:Src/stm32f10x_it.c **** * Output         : None
 446:Src/stm32f10x_it.c **** * Return         : None
 447:Src/stm32f10x_it.c **** *******************************************************************************/
 448:Src/stm32f10x_it.c **** void TIM1_UP_IRQHandler(void)
 449:Src/stm32f10x_it.c **** {
 622              		.loc 1 449 0
 623              		.cfi_startproc
 624              		@ args = 0, pretend = 0, frame = 0
 625              		@ frame_needed = 0, uses_anonymous_args = 0
 626              		@ link register save eliminated.
 627 0000 7047     		bx	lr
 628              		.cfi_endproc
 629              	.LFE62:
 631 0002 00BF     		.section	.text.TIM1_TRG_COM_IRQHandler,"ax",%progbits
 632              		.align	2
 633              		.global	TIM1_TRG_COM_IRQHandler
 634              		.thumb
 635              		.thumb_func
 637              	TIM1_TRG_COM_IRQHandler:
 638              	.LFB63:
 450:Src/stm32f10x_it.c **** }
 451:Src/stm32f10x_it.c **** 
 452:Src/stm32f10x_it.c **** /*******************************************************************************
 453:Src/stm32f10x_it.c **** * Function Name  : TIM1_TRG_COM_IRQHandler
 454:Src/stm32f10x_it.c **** * Description    : This function handles TIM1 Trigger and commutation interrupts 
 455:Src/stm32f10x_it.c **** *                  requests.
 456:Src/stm32f10x_it.c **** * Input          : None
 457:Src/stm32f10x_it.c **** * Output         : None
 458:Src/stm32f10x_it.c **** * Return         : None
 459:Src/stm32f10x_it.c **** *******************************************************************************/
ARM GAS  /var/folders/g9/bbpj86ld7fx45vd1b3pqxmp00000gn/T//ccGuWmWx.s 			page 19


 460:Src/stm32f10x_it.c **** void TIM1_TRG_COM_IRQHandler(void)
 461:Src/stm32f10x_it.c **** {
 639              		.loc 1 461 0
 640              		.cfi_startproc
 641              		@ args = 0, pretend = 0, frame = 0
 642              		@ frame_needed = 0, uses_anonymous_args = 0
 643              		@ link register save eliminated.
 644 0000 7047     		bx	lr
 645              		.cfi_endproc
 646              	.LFE63:
 648 0002 00BF     		.section	.text.TIM1_CC_IRQHandler,"ax",%progbits
 649              		.align	2
 650              		.global	TIM1_CC_IRQHandler
 651              		.thumb
 652              		.thumb_func
 654              	TIM1_CC_IRQHandler:
 655              	.LFB64:
 462:Src/stm32f10x_it.c **** }
 463:Src/stm32f10x_it.c **** 
 464:Src/stm32f10x_it.c **** /*******************************************************************************
 465:Src/stm32f10x_it.c **** * Function Name  : TIM1_CC_IRQHandler
 466:Src/stm32f10x_it.c **** * Description    : This function handles TIM1 capture compare interrupt request.
 467:Src/stm32f10x_it.c **** * Input          : None
 468:Src/stm32f10x_it.c **** * Output         : None
 469:Src/stm32f10x_it.c **** * Return         : None
 470:Src/stm32f10x_it.c **** *******************************************************************************/
 471:Src/stm32f10x_it.c **** void TIM1_CC_IRQHandler(void)
 472:Src/stm32f10x_it.c **** {
 656              		.loc 1 472 0
 657              		.cfi_startproc
 658              		@ args = 0, pretend = 0, frame = 0
 659              		@ frame_needed = 0, uses_anonymous_args = 0
 660              		@ link register save eliminated.
 661 0000 7047     		bx	lr
 662              		.cfi_endproc
 663              	.LFE64:
 665 0002 00BF     		.section	.text.TIM2_IRQHandler,"ax",%progbits
 666              		.align	2
 667              		.global	TIM2_IRQHandler
 668              		.thumb
 669              		.thumb_func
 671              	TIM2_IRQHandler:
 672              	.LFB65:
 473:Src/stm32f10x_it.c **** }
 474:Src/stm32f10x_it.c **** 
 475:Src/stm32f10x_it.c **** /*******************************************************************************
 476:Src/stm32f10x_it.c **** * Function Name  : TIM2_IRQHandler
 477:Src/stm32f10x_it.c **** * Description    : This function handles TIM2 global interrupt request.
 478:Src/stm32f10x_it.c **** * Input          : None
 479:Src/stm32f10x_it.c **** * Output         : None
 480:Src/stm32f10x_it.c **** * Return         : None
 481:Src/stm32f10x_it.c **** *******************************************************************************/
 482:Src/stm32f10x_it.c **** void TIM2_IRQHandler(void)
 483:Src/stm32f10x_it.c **** {
 673              		.loc 1 483 0
 674              		.cfi_startproc
 675              		@ args = 0, pretend = 0, frame = 0
ARM GAS  /var/folders/g9/bbpj86ld7fx45vd1b3pqxmp00000gn/T//ccGuWmWx.s 			page 20


 676              		@ frame_needed = 0, uses_anonymous_args = 0
 677              		@ link register save eliminated.
 678 0000 7047     		bx	lr
 679              		.cfi_endproc
 680              	.LFE65:
 682 0002 00BF     		.section	.text.TIM3_IRQHandler,"ax",%progbits
 683              		.align	2
 684              		.global	TIM3_IRQHandler
 685              		.thumb
 686              		.thumb_func
 688              	TIM3_IRQHandler:
 689              	.LFB66:
 484:Src/stm32f10x_it.c **** }
 485:Src/stm32f10x_it.c **** 
 486:Src/stm32f10x_it.c **** /*******************************************************************************
 487:Src/stm32f10x_it.c **** * Function Name  : TIM3_IRQHandler
 488:Src/stm32f10x_it.c **** * Description    : This function handles TIM3 global interrupt request.
 489:Src/stm32f10x_it.c **** * Input          : None
 490:Src/stm32f10x_it.c **** * Output         : None
 491:Src/stm32f10x_it.c **** * Return         : None
 492:Src/stm32f10x_it.c **** *******************************************************************************/
 493:Src/stm32f10x_it.c **** void TIM3_IRQHandler(void)
 494:Src/stm32f10x_it.c **** {
 690              		.loc 1 494 0
 691              		.cfi_startproc
 692              		@ args = 0, pretend = 0, frame = 0
 693              		@ frame_needed = 0, uses_anonymous_args = 0
 694              		@ link register save eliminated.
 695 0000 7047     		bx	lr
 696              		.cfi_endproc
 697              	.LFE66:
 699 0002 00BF     		.section	.text.TIM4_IRQHandler,"ax",%progbits
 700              		.align	2
 701              		.global	TIM4_IRQHandler
 702              		.thumb
 703              		.thumb_func
 705              	TIM4_IRQHandler:
 706              	.LFB67:
 495:Src/stm32f10x_it.c **** }
 496:Src/stm32f10x_it.c **** 
 497:Src/stm32f10x_it.c **** /*******************************************************************************
 498:Src/stm32f10x_it.c **** * Function Name  : TIM4_IRQHandler
 499:Src/stm32f10x_it.c **** * Description    : This function handles TIM4 global interrupt request.
 500:Src/stm32f10x_it.c **** * Input          : None
 501:Src/stm32f10x_it.c **** * Output         : None
 502:Src/stm32f10x_it.c **** * Return         : None
 503:Src/stm32f10x_it.c **** *******************************************************************************/
 504:Src/stm32f10x_it.c **** void TIM4_IRQHandler(void)
 505:Src/stm32f10x_it.c **** {
 707              		.loc 1 505 0
 708              		.cfi_startproc
 709              		@ args = 0, pretend = 0, frame = 0
 710              		@ frame_needed = 0, uses_anonymous_args = 0
 711              		@ link register save eliminated.
 712 0000 7047     		bx	lr
 713              		.cfi_endproc
 714              	.LFE67:
ARM GAS  /var/folders/g9/bbpj86ld7fx45vd1b3pqxmp00000gn/T//ccGuWmWx.s 			page 21


 716 0002 00BF     		.section	.text.I2C1_EV_IRQHandler,"ax",%progbits
 717              		.align	2
 718              		.global	I2C1_EV_IRQHandler
 719              		.thumb
 720              		.thumb_func
 722              	I2C1_EV_IRQHandler:
 723              	.LFB68:
 506:Src/stm32f10x_it.c **** }
 507:Src/stm32f10x_it.c **** 
 508:Src/stm32f10x_it.c **** /*******************************************************************************
 509:Src/stm32f10x_it.c **** * Function Name  : I2C1_EV_IRQHandler
 510:Src/stm32f10x_it.c **** * Description    : This function handles I2C1 Event interrupt request.
 511:Src/stm32f10x_it.c **** * Input          : None
 512:Src/stm32f10x_it.c **** * Output         : None
 513:Src/stm32f10x_it.c **** * Return         : None
 514:Src/stm32f10x_it.c **** *******************************************************************************/
 515:Src/stm32f10x_it.c **** void I2C1_EV_IRQHandler(void)
 516:Src/stm32f10x_it.c **** {
 724              		.loc 1 516 0
 725              		.cfi_startproc
 726              		@ args = 0, pretend = 0, frame = 0
 727              		@ frame_needed = 0, uses_anonymous_args = 0
 728              		@ link register save eliminated.
 729 0000 7047     		bx	lr
 730              		.cfi_endproc
 731              	.LFE68:
 733 0002 00BF     		.section	.text.I2C1_ER_IRQHandler,"ax",%progbits
 734              		.align	2
 735              		.global	I2C1_ER_IRQHandler
 736              		.thumb
 737              		.thumb_func
 739              	I2C1_ER_IRQHandler:
 740              	.LFB69:
 517:Src/stm32f10x_it.c **** }
 518:Src/stm32f10x_it.c **** 
 519:Src/stm32f10x_it.c **** /*******************************************************************************
 520:Src/stm32f10x_it.c **** * Function Name  : I2C1_ER_IRQHandler
 521:Src/stm32f10x_it.c **** * Description    : This function handles I2C1 Error interrupt request.
 522:Src/stm32f10x_it.c **** * Input          : None
 523:Src/stm32f10x_it.c **** * Output         : None
 524:Src/stm32f10x_it.c **** * Return         : None
 525:Src/stm32f10x_it.c **** *******************************************************************************/
 526:Src/stm32f10x_it.c **** void I2C1_ER_IRQHandler(void)
 527:Src/stm32f10x_it.c **** {
 741              		.loc 1 527 0
 742              		.cfi_startproc
 743              		@ args = 0, pretend = 0, frame = 0
 744              		@ frame_needed = 0, uses_anonymous_args = 0
 745              		@ link register save eliminated.
 746 0000 7047     		bx	lr
 747              		.cfi_endproc
 748              	.LFE69:
 750 0002 00BF     		.section	.text.I2C2_EV_IRQHandler,"ax",%progbits
 751              		.align	2
 752              		.global	I2C2_EV_IRQHandler
 753              		.thumb
 754              		.thumb_func
ARM GAS  /var/folders/g9/bbpj86ld7fx45vd1b3pqxmp00000gn/T//ccGuWmWx.s 			page 22


 756              	I2C2_EV_IRQHandler:
 757              	.LFB70:
 528:Src/stm32f10x_it.c **** }
 529:Src/stm32f10x_it.c **** 
 530:Src/stm32f10x_it.c **** /*******************************************************************************
 531:Src/stm32f10x_it.c **** * Function Name  : I2C2_EV_IRQHandler
 532:Src/stm32f10x_it.c **** * Description    : This function handles I2C2 Event interrupt request.
 533:Src/stm32f10x_it.c **** * Input          : None
 534:Src/stm32f10x_it.c **** * Output         : None
 535:Src/stm32f10x_it.c **** * Return         : None
 536:Src/stm32f10x_it.c **** *******************************************************************************/
 537:Src/stm32f10x_it.c **** void I2C2_EV_IRQHandler(void)
 538:Src/stm32f10x_it.c **** {
 758              		.loc 1 538 0
 759              		.cfi_startproc
 760              		@ args = 0, pretend = 0, frame = 0
 761              		@ frame_needed = 0, uses_anonymous_args = 0
 762              		@ link register save eliminated.
 763 0000 7047     		bx	lr
 764              		.cfi_endproc
 765              	.LFE70:
 767 0002 00BF     		.section	.text.I2C2_ER_IRQHandler,"ax",%progbits
 768              		.align	2
 769              		.global	I2C2_ER_IRQHandler
 770              		.thumb
 771              		.thumb_func
 773              	I2C2_ER_IRQHandler:
 774              	.LFB71:
 539:Src/stm32f10x_it.c **** }
 540:Src/stm32f10x_it.c **** 
 541:Src/stm32f10x_it.c **** /*******************************************************************************
 542:Src/stm32f10x_it.c **** * Function Name  : I2C2_ER_IRQHandler
 543:Src/stm32f10x_it.c **** * Description    : This function handles I2C2 Error interrupt request.
 544:Src/stm32f10x_it.c **** * Input          : None
 545:Src/stm32f10x_it.c **** * Output         : None
 546:Src/stm32f10x_it.c **** * Return         : None
 547:Src/stm32f10x_it.c **** *******************************************************************************/
 548:Src/stm32f10x_it.c **** void I2C2_ER_IRQHandler(void)
 549:Src/stm32f10x_it.c **** {
 775              		.loc 1 549 0
 776              		.cfi_startproc
 777              		@ args = 0, pretend = 0, frame = 0
 778              		@ frame_needed = 0, uses_anonymous_args = 0
 779              		@ link register save eliminated.
 780 0000 7047     		bx	lr
 781              		.cfi_endproc
 782              	.LFE71:
 784 0002 00BF     		.section	.text.SPI1_IRQHandler,"ax",%progbits
 785              		.align	2
 786              		.global	SPI1_IRQHandler
 787              		.thumb
 788              		.thumb_func
 790              	SPI1_IRQHandler:
 791              	.LFB72:
 550:Src/stm32f10x_it.c **** }
 551:Src/stm32f10x_it.c **** 
 552:Src/stm32f10x_it.c **** /*******************************************************************************
ARM GAS  /var/folders/g9/bbpj86ld7fx45vd1b3pqxmp00000gn/T//ccGuWmWx.s 			page 23


 553:Src/stm32f10x_it.c **** * Function Name  : SPI1_IRQHandler
 554:Src/stm32f10x_it.c **** * Description    : This function handles SPI1 global interrupt request.
 555:Src/stm32f10x_it.c **** * Input          : None
 556:Src/stm32f10x_it.c **** * Output         : None
 557:Src/stm32f10x_it.c **** * Return         : None
 558:Src/stm32f10x_it.c **** *******************************************************************************/
 559:Src/stm32f10x_it.c **** void SPI1_IRQHandler(void)
 560:Src/stm32f10x_it.c **** {
 792              		.loc 1 560 0
 793              		.cfi_startproc
 794              		@ args = 0, pretend = 0, frame = 0
 795              		@ frame_needed = 0, uses_anonymous_args = 0
 796              		@ link register save eliminated.
 797 0000 7047     		bx	lr
 798              		.cfi_endproc
 799              	.LFE72:
 801 0002 00BF     		.section	.text.SPI2_IRQHandler,"ax",%progbits
 802              		.align	2
 803              		.global	SPI2_IRQHandler
 804              		.thumb
 805              		.thumb_func
 807              	SPI2_IRQHandler:
 808              	.LFB73:
 561:Src/stm32f10x_it.c **** }
 562:Src/stm32f10x_it.c **** 
 563:Src/stm32f10x_it.c **** /*******************************************************************************
 564:Src/stm32f10x_it.c **** * Function Name  : SPI2_IRQHandler
 565:Src/stm32f10x_it.c **** * Description    : This function handles SPI2 global interrupt request.
 566:Src/stm32f10x_it.c **** * Input          : None
 567:Src/stm32f10x_it.c **** * Output         : None
 568:Src/stm32f10x_it.c **** * Return         : None
 569:Src/stm32f10x_it.c **** *******************************************************************************/
 570:Src/stm32f10x_it.c **** void SPI2_IRQHandler(void)
 571:Src/stm32f10x_it.c **** {
 809              		.loc 1 571 0
 810              		.cfi_startproc
 811              		@ args = 0, pretend = 0, frame = 0
 812              		@ frame_needed = 0, uses_anonymous_args = 0
 813              		@ link register save eliminated.
 814 0000 7047     		bx	lr
 815              		.cfi_endproc
 816              	.LFE73:
 818 0002 00BF     		.section	.text.USART1_IRQHandler,"ax",%progbits
 819              		.align	2
 820              		.global	USART1_IRQHandler
 821              		.thumb
 822              		.thumb_func
 824              	USART1_IRQHandler:
 825              	.LFB74:
 572:Src/stm32f10x_it.c **** }
 573:Src/stm32f10x_it.c **** 
 574:Src/stm32f10x_it.c **** /*******************************************************************************
 575:Src/stm32f10x_it.c **** * Function Name  : USART1_IRQHandler
 576:Src/stm32f10x_it.c **** * Description    : This function handles USART1 global interrupt request.
 577:Src/stm32f10x_it.c **** * Input          : None
 578:Src/stm32f10x_it.c **** * Output         : None
 579:Src/stm32f10x_it.c **** * Return         : None
ARM GAS  /var/folders/g9/bbpj86ld7fx45vd1b3pqxmp00000gn/T//ccGuWmWx.s 			page 24


 580:Src/stm32f10x_it.c **** *******************************************************************************/
 581:Src/stm32f10x_it.c **** void USART1_IRQHandler(void)
 582:Src/stm32f10x_it.c **** {
 826              		.loc 1 582 0
 827              		.cfi_startproc
 828              		@ args = 0, pretend = 0, frame = 0
 829              		@ frame_needed = 0, uses_anonymous_args = 0
 830              		@ link register save eliminated.
 831 0000 7047     		bx	lr
 832              		.cfi_endproc
 833              	.LFE74:
 835 0002 00BF     		.section	.text.USART2_IRQHandler,"ax",%progbits
 836              		.align	2
 837              		.global	USART2_IRQHandler
 838              		.thumb
 839              		.thumb_func
 841              	USART2_IRQHandler:
 842              	.LFB75:
 583:Src/stm32f10x_it.c **** }
 584:Src/stm32f10x_it.c **** 
 585:Src/stm32f10x_it.c **** /*******************************************************************************
 586:Src/stm32f10x_it.c **** * Function Name  : USART2_IRQHandler
 587:Src/stm32f10x_it.c **** * Description    : This function handles USART2 global interrupt request.
 588:Src/stm32f10x_it.c **** * Input          : None
 589:Src/stm32f10x_it.c **** * Output         : None
 590:Src/stm32f10x_it.c **** * Return         : None
 591:Src/stm32f10x_it.c **** *******************************************************************************/
 592:Src/stm32f10x_it.c **** void USART2_IRQHandler(void)
 593:Src/stm32f10x_it.c **** {
 843              		.loc 1 593 0
 844              		.cfi_startproc
 845              		@ args = 0, pretend = 0, frame = 0
 846              		@ frame_needed = 0, uses_anonymous_args = 0
 847              		@ link register save eliminated.
 848 0000 7047     		bx	lr
 849              		.cfi_endproc
 850              	.LFE75:
 852 0002 00BF     		.section	.text.USART3_IRQHandler,"ax",%progbits
 853              		.align	2
 854              		.global	USART3_IRQHandler
 855              		.thumb
 856              		.thumb_func
 858              	USART3_IRQHandler:
 859              	.LFB76:
 594:Src/stm32f10x_it.c **** }
 595:Src/stm32f10x_it.c **** 
 596:Src/stm32f10x_it.c **** /*******************************************************************************
 597:Src/stm32f10x_it.c **** * Function Name  : USART3_IRQHandler
 598:Src/stm32f10x_it.c **** * Description    : This function handles USART3 global interrupt request.
 599:Src/stm32f10x_it.c **** * Input          : None
 600:Src/stm32f10x_it.c **** * Output         : None
 601:Src/stm32f10x_it.c **** * Return         : None
 602:Src/stm32f10x_it.c **** *******************************************************************************/
 603:Src/stm32f10x_it.c **** void USART3_IRQHandler(void)
 604:Src/stm32f10x_it.c **** {
 860              		.loc 1 604 0
 861              		.cfi_startproc
ARM GAS  /var/folders/g9/bbpj86ld7fx45vd1b3pqxmp00000gn/T//ccGuWmWx.s 			page 25


 862              		@ args = 0, pretend = 0, frame = 0
 863              		@ frame_needed = 0, uses_anonymous_args = 0
 864              		@ link register save eliminated.
 865 0000 7047     		bx	lr
 866              		.cfi_endproc
 867              	.LFE76:
 869 0002 00BF     		.section	.text.EXTI15_10_IRQHandler,"ax",%progbits
 870              		.align	2
 871              		.global	EXTI15_10_IRQHandler
 872              		.thumb
 873              		.thumb_func
 875              	EXTI15_10_IRQHandler:
 876              	.LFB77:
 605:Src/stm32f10x_it.c **** }
 606:Src/stm32f10x_it.c **** 
 607:Src/stm32f10x_it.c **** /*******************************************************************************
 608:Src/stm32f10x_it.c **** * Function Name  : EXTI15_10_IRQHandler
 609:Src/stm32f10x_it.c **** * Description    : This function handles External lines 15 to 10 interrupt request.
 610:Src/stm32f10x_it.c **** * Input          : None
 611:Src/stm32f10x_it.c **** * Output         : None
 612:Src/stm32f10x_it.c **** * Return         : None
 613:Src/stm32f10x_it.c **** *******************************************************************************/
 614:Src/stm32f10x_it.c **** void EXTI15_10_IRQHandler(void)
 615:Src/stm32f10x_it.c **** {
 877              		.loc 1 615 0
 878              		.cfi_startproc
 879              		@ args = 0, pretend = 0, frame = 0
 880              		@ frame_needed = 0, uses_anonymous_args = 0
 881              		@ link register save eliminated.
 882 0000 7047     		bx	lr
 883              		.cfi_endproc
 884              	.LFE77:
 886 0002 00BF     		.section	.text.RTCAlarm_IRQHandler,"ax",%progbits
 887              		.align	2
 888              		.global	RTCAlarm_IRQHandler
 889              		.thumb
 890              		.thumb_func
 892              	RTCAlarm_IRQHandler:
 893              	.LFB78:
 616:Src/stm32f10x_it.c **** }
 617:Src/stm32f10x_it.c **** 
 618:Src/stm32f10x_it.c **** /*******************************************************************************
 619:Src/stm32f10x_it.c **** * Function Name  : RTCAlarm_IRQHandler
 620:Src/stm32f10x_it.c **** * Description    : This function handles RTC Alarm interrupt request.
 621:Src/stm32f10x_it.c **** * Input          : None
 622:Src/stm32f10x_it.c **** * Output         : None
 623:Src/stm32f10x_it.c **** * Return         : None
 624:Src/stm32f10x_it.c **** *******************************************************************************/
 625:Src/stm32f10x_it.c **** void RTCAlarm_IRQHandler(void)
 626:Src/stm32f10x_it.c **** {
 894              		.loc 1 626 0
 895              		.cfi_startproc
 896              		@ args = 0, pretend = 0, frame = 0
 897              		@ frame_needed = 0, uses_anonymous_args = 0
 898              		@ link register save eliminated.
 899 0000 7047     		bx	lr
 900              		.cfi_endproc
ARM GAS  /var/folders/g9/bbpj86ld7fx45vd1b3pqxmp00000gn/T//ccGuWmWx.s 			page 26


 901              	.LFE78:
 903 0002 00BF     		.section	.text.USBWakeUp_IRQHandler,"ax",%progbits
 904              		.align	2
 905              		.global	USBWakeUp_IRQHandler
 906              		.thumb
 907              		.thumb_func
 909              	USBWakeUp_IRQHandler:
 910              	.LFB79:
 627:Src/stm32f10x_it.c **** }
 628:Src/stm32f10x_it.c **** 
 629:Src/stm32f10x_it.c **** /*******************************************************************************
 630:Src/stm32f10x_it.c **** * Function Name  : USBWakeUp_IRQHandler
 631:Src/stm32f10x_it.c **** * Description    : This function handles USB WakeUp interrupt request.
 632:Src/stm32f10x_it.c **** * Input          : None
 633:Src/stm32f10x_it.c **** * Output         : None
 634:Src/stm32f10x_it.c **** * Return         : None
 635:Src/stm32f10x_it.c **** *******************************************************************************/
 636:Src/stm32f10x_it.c **** void USBWakeUp_IRQHandler(void)
 637:Src/stm32f10x_it.c **** {
 911              		.loc 1 637 0
 912              		.cfi_startproc
 913              		@ args = 0, pretend = 0, frame = 0
 914              		@ frame_needed = 0, uses_anonymous_args = 0
 915              		@ link register save eliminated.
 916 0000 7047     		bx	lr
 917              		.cfi_endproc
 918              	.LFE79:
 920              		.comm	Send_Buffer,2,4
 921 0002 00BF     		.text
 922              	.Letext0:
 923              		.file 2 "/usr/local/Cellar/gcc-arm-none-eabi/20160926/arm-none-eabi/include/machine/_default_types
 924              		.file 3 "/usr/local/Cellar/gcc-arm-none-eabi/20160926/arm-none-eabi/include/sys/_stdint.h"
 925              		.file 4 "Inc/hw_config.h"
ARM GAS  /var/folders/g9/bbpj86ld7fx45vd1b3pqxmp00000gn/T//ccGuWmWx.s 			page 27

